;--------------------------------------------------------
; File Created by SDCC : free open source ANSI-C Compiler
; Version 4.1.6 #12539 (Linux)
;--------------------------------------------------------
	.module main
	.optsdcc -mgbz80
	
;--------------------------------------------------------
; Public variables in this module
;--------------------------------------------------------
	.globl _main
	.globl _init
	.globl _checkCollision
	.globl _move
	.globl _abs
	.globl _u16Clamp
	.globl _uClamp
	.globl _clamp
	.globl _updateDirection
	.globl _setHealthBar
	.globl _interruptLCD
	.globl _font_set
	.globl _font_load
	.globl _font_init
	.globl _set_sprite_data
	.globl _set_win_tiles
	.globl _set_bkg_tiles
	.globl _set_bkg_data
	.globl _wait_vbl_done
	.globl _set_interrupts
	.globl _joypad
	.globl _add_LCD
	.globl _maxShield
	.globl _maxHull
	.globl _bgY
	.globl _bgX
	.globl _playerDrawY
	.globl _playerDrawX
	.globl _playerY
	.globl _playerX
	.globl _ySpeed
	.globl _xSpeed
	.globl _yDir
	.globl _xDir
	.globl _shieldlabel
	.globl _hullabel
	.globl _min_font
	.globl _shield
	.globl _hull
	.globl _joydata
	.globl _BLANK
	.globl _healthblock
	.globl _backgroundtiles
	.globl _background1
	.globl _cross
;--------------------------------------------------------
; special function registers
;--------------------------------------------------------
;--------------------------------------------------------
; ram data
;--------------------------------------------------------
	.area _DATA
_joydata::
	.ds 1
_hull::
	.ds 1
_shield::
	.ds 1
_min_font::
	.ds 2
;--------------------------------------------------------
; ram data
;--------------------------------------------------------
	.area _INITIALIZED
_hullabel::
	.ds 4
_shieldlabel::
	.ds 4
_xDir::
	.ds 1
_yDir::
	.ds 1
_xSpeed::
	.ds 1
_ySpeed::
	.ds 1
_playerX::
	.ds 2
_playerY::
	.ds 2
_playerDrawX::
	.ds 1
_playerDrawY::
	.ds 1
_bgX::
	.ds 2
_bgY::
	.ds 2
_maxHull::
	.ds 1
_maxShield::
	.ds 1
;--------------------------------------------------------
; absolute external ram data
;--------------------------------------------------------
	.area _DABS (ABS)
;--------------------------------------------------------
; global & static initialisations
;--------------------------------------------------------
	.area _HOME
	.area _GSINIT
	.area _GSFINAL
	.area _GSINIT
;--------------------------------------------------------
; Home
;--------------------------------------------------------
	.area _HOME
	.area _HOME
;--------------------------------------------------------
; code
;--------------------------------------------------------
	.area _CODE
;main.c:43: void interruptLCD(){
;	---------------------------------
; Function interruptLCD
; ---------------------------------
_interruptLCD::
;main.c:44: HIDE_WIN;
	ldh	a, (_LCDC_REG + 0)
	and	a, #0xdf
	ldh	(_LCDC_REG + 0), a
;main.c:45: }
	ret
_cross:
	.db #0x18	; 24
	.db #0x18	; 24
	.db #0x18	; 24
	.db #0x18	; 24
	.db #0x3c	; 60
	.db #0x3c	; 60
	.db #0x3c	; 60
	.db #0x3c	; 60
	.db #0x7e	; 126
	.db #0x7e	; 126
	.db #0x7e	; 126
	.db #0x7e	; 126
	.db #0xff	; 255
	.db #0xff	; 255
	.db #0xff	; 255
	.db #0xff	; 255
	.db #0x0f	; 15
	.db #0x0f	; 15
	.db #0x3f	; 63
	.db #0x3f	; 63
	.db #0xff	; 255
	.db #0xff	; 255
	.db #0xff	; 255
	.db #0xff	; 255
	.db #0x7e	; 126
	.db #0x7e	; 126
	.db #0x3e	; 62
	.db #0x3e	; 62
	.db #0x1c	; 28
	.db #0x1c	; 28
	.db #0x0c	; 12
	.db #0x0c	; 12
	.db #0xc0	; 192
	.db #0xc0	; 192
	.db #0xf0	; 240
	.db #0xf0	; 240
	.db #0xfc	; 252
	.db #0xfc	; 252
	.db #0xff	; 255
	.db #0xff	; 255
	.db #0xff	; 255
	.db #0xff	; 255
	.db #0xfc	; 252
	.db #0xfc	; 252
	.db #0xf0	; 240
	.db #0xf0	; 240
	.db #0xc0	; 192
	.db #0xc0	; 192
	.db #0x0c	; 12
	.db #0x0c	; 12
	.db #0x1c	; 28
	.db #0x1c	; 28
	.db #0x3e	; 62
	.db #0x3e	; 62
	.db #0x7e	; 126
	.db #0x7e	; 126
	.db #0xff	; 255
	.db #0xff	; 255
	.db #0xff	; 255
	.db #0xff	; 255
	.db #0x3f	; 63
	.db #0x3f	; 63
	.db #0x0f	; 15
	.db #0x0f	; 15
	.db #0xff	; 255
	.db #0xff	; 255
	.db #0xff	; 255
	.db #0xff	; 255
	.db #0x7e	; 126
	.db #0x7e	; 126
	.db #0x7e	; 126
	.db #0x7e	; 126
	.db #0x3c	; 60
	.db #0x3c	; 60
	.db #0x3c	; 60
	.db #0x3c	; 60
	.db #0x18	; 24
	.db #0x18	; 24
	.db #0x18	; 24
	.db #0x18	; 24
	.db #0x30	; 48	'0'
	.db #0x30	; 48	'0'
	.db #0x38	; 56	'8'
	.db #0x38	; 56	'8'
	.db #0x7c	; 124
	.db #0x7c	; 124
	.db #0x7e	; 126
	.db #0x7e	; 126
	.db #0xff	; 255
	.db #0xff	; 255
	.db #0xff	; 255
	.db #0xff	; 255
	.db #0xfc	; 252
	.db #0xfc	; 252
	.db #0xf0	; 240
	.db #0xf0	; 240
	.db #0x03	; 3
	.db #0x03	; 3
	.db #0x0f	; 15
	.db #0x0f	; 15
	.db #0x3f	; 63
	.db #0x3f	; 63
	.db #0xff	; 255
	.db #0xff	; 255
	.db #0xff	; 255
	.db #0xff	; 255
	.db #0x3f	; 63
	.db #0x3f	; 63
	.db #0x0f	; 15
	.db #0x0f	; 15
	.db #0x03	; 3
	.db #0x03	; 3
	.db #0xf0	; 240
	.db #0xf0	; 240
	.db #0xfc	; 252
	.db #0xfc	; 252
	.db #0xff	; 255
	.db #0xff	; 255
	.db #0xff	; 255
	.db #0xff	; 255
	.db #0x7e	; 126
	.db #0x7e	; 126
	.db #0x7c	; 124
	.db #0x7c	; 124
	.db #0x38	; 56	'8'
	.db #0x38	; 56	'8'
	.db #0x30	; 48	'0'
	.db #0x30	; 48	'0'
_background1:
	.db #0x26	; 38
	.db #0x26	; 38
	.db #0x26	; 38
	.db #0x26	; 38
	.db #0x26	; 38
	.db #0x26	; 38
	.db #0x26	; 38
	.db #0x26	; 38
	.db #0x26	; 38
	.db #0x26	; 38
	.db #0x26	; 38
	.db #0x2a	; 42
	.db #0x29	; 41
	.db #0x26	; 38
	.db #0x26	; 38
	.db #0x26	; 38
	.db #0x26	; 38
	.db #0x26	; 38
	.db #0x26	; 38
	.db #0x26	; 38
	.db #0x26	; 38
	.db #0x26	; 38
	.db #0x26	; 38
	.db #0x26	; 38
	.db #0x26	; 38
	.db #0x26	; 38
	.db #0x26	; 38
	.db #0x26	; 38
	.db #0x26	; 38
	.db #0x26	; 38
	.db #0x26	; 38
	.db #0x26	; 38
	.db #0x26	; 38
	.db #0x26	; 38
	.db #0x26	; 38
	.db #0x26	; 38
	.db #0x26	; 38
	.db #0x26	; 38
	.db #0x26	; 38
	.db #0x26	; 38
	.db #0x26	; 38
	.db #0x26	; 38
	.db #0x26	; 38
	.db #0x25	; 37
	.db #0x26	; 38
	.db #0x26	; 38
	.db #0x26	; 38
	.db #0x26	; 38
	.db #0x26	; 38
	.db #0x26	; 38
	.db #0x26	; 38
	.db #0x26	; 38
	.db #0x26	; 38
	.db #0x26	; 38
	.db #0x26	; 38
	.db #0x26	; 38
	.db #0x26	; 38
	.db #0x26	; 38
	.db #0x26	; 38
	.db #0x26	; 38
	.db #0x26	; 38
	.db #0x26	; 38
	.db #0x26	; 38
	.db #0x26	; 38
	.db #0x26	; 38
	.db #0x26	; 38
	.db #0x26	; 38
	.db #0x26	; 38
	.db #0x26	; 38
	.db #0x26	; 38
	.db #0x26	; 38
	.db #0x26	; 38
	.db #0x26	; 38
	.db #0x26	; 38
	.db #0x26	; 38
	.db #0x26	; 38
	.db #0x26	; 38
	.db #0x26	; 38
	.db #0x26	; 38
	.db #0x26	; 38
	.db #0x26	; 38
	.db #0x26	; 38
	.db #0x26	; 38
	.db #0x26	; 38
	.db #0x26	; 38
	.db #0x26	; 38
	.db #0x26	; 38
	.db #0x26	; 38
	.db #0x26	; 38
	.db #0x26	; 38
	.db #0x26	; 38
	.db #0x26	; 38
	.db #0x26	; 38
	.db #0x26	; 38
	.db #0x26	; 38
	.db #0x26	; 38
	.db #0x26	; 38
	.db #0x26	; 38
	.db #0x26	; 38
	.db #0x26	; 38
	.db #0x26	; 38
	.db #0x26	; 38
	.db #0x26	; 38
	.db #0x26	; 38
	.db #0x26	; 38
	.db #0x26	; 38
	.db #0x26	; 38
	.db #0x26	; 38
	.db #0x26	; 38
	.db #0x26	; 38
	.db #0x26	; 38
	.db #0x26	; 38
	.db #0x26	; 38
	.db #0x26	; 38
	.db #0x26	; 38
	.db #0x26	; 38
	.db #0x26	; 38
	.db #0x26	; 38
	.db #0x26	; 38
	.db #0x26	; 38
	.db #0x26	; 38
	.db #0x26	; 38
	.db #0x26	; 38
	.db #0x26	; 38
	.db #0x26	; 38
	.db #0x26	; 38
	.db #0x26	; 38
	.db #0x26	; 38
	.db #0x26	; 38
	.db #0x26	; 38
	.db #0x26	; 38
	.db #0x26	; 38
	.db #0x26	; 38
	.db #0x26	; 38
	.db #0x26	; 38
	.db #0x26	; 38
	.db #0x26	; 38
	.db #0x26	; 38
	.db #0x26	; 38
	.db #0x26	; 38
	.db #0x26	; 38
	.db #0x26	; 38
	.db #0x26	; 38
	.db #0x26	; 38
	.db #0x26	; 38
	.db #0x26	; 38
	.db #0x26	; 38
	.db #0x26	; 38
	.db #0x26	; 38
	.db #0x26	; 38
	.db #0x26	; 38
	.db #0x26	; 38
	.db #0x26	; 38
	.db #0x26	; 38
	.db #0x26	; 38
	.db #0x26	; 38
	.db #0x26	; 38
	.db #0x26	; 38
	.db #0x26	; 38
	.db #0x26	; 38
	.db #0x26	; 38
	.db #0x26	; 38
	.db #0x26	; 38
	.db #0x26	; 38
	.db #0x26	; 38
	.db #0x26	; 38
	.db #0x26	; 38
	.db #0x26	; 38
	.db #0x26	; 38
	.db #0x26	; 38
	.db #0x26	; 38
	.db #0x26	; 38
	.db #0x26	; 38
	.db #0x26	; 38
	.db #0x26	; 38
	.db #0x26	; 38
	.db #0x26	; 38
	.db #0x26	; 38
	.db #0x26	; 38
	.db #0x26	; 38
	.db #0x26	; 38
	.db #0x26	; 38
	.db #0x26	; 38
	.db #0x26	; 38
	.db #0x26	; 38
	.db #0x26	; 38
	.db #0x26	; 38
	.db #0x26	; 38
	.db #0x26	; 38
	.db #0x26	; 38
	.db #0x26	; 38
	.db #0x26	; 38
	.db #0x26	; 38
	.db #0x26	; 38
	.db #0x26	; 38
	.db #0x26	; 38
	.db #0x26	; 38
	.db #0x26	; 38
	.db #0x26	; 38
	.db #0x26	; 38
	.db #0x26	; 38
	.db #0x26	; 38
	.db #0x26	; 38
	.db #0x26	; 38
	.db #0x26	; 38
	.db #0x26	; 38
	.db #0x26	; 38
	.db #0x26	; 38
	.db #0x26	; 38
	.db #0x26	; 38
	.db #0x26	; 38
	.db #0x26	; 38
	.db #0x26	; 38
	.db #0x26	; 38
	.db #0x26	; 38
	.db #0x26	; 38
	.db #0x26	; 38
	.db #0x26	; 38
	.db #0x26	; 38
	.db #0x26	; 38
	.db #0x26	; 38
	.db #0x26	; 38
	.db #0x26	; 38
	.db #0x26	; 38
	.db #0x26	; 38
	.db #0x26	; 38
	.db #0x26	; 38
	.db #0x26	; 38
	.db #0x26	; 38
	.db #0x26	; 38
	.db #0x26	; 38
	.db #0x26	; 38
	.db #0x26	; 38
	.db #0x26	; 38
	.db #0x26	; 38
	.db #0x26	; 38
	.db #0x26	; 38
	.db #0x26	; 38
	.db #0x26	; 38
	.db #0x26	; 38
	.db #0x26	; 38
	.db #0x26	; 38
	.db #0x26	; 38
	.db #0x26	; 38
	.db #0x26	; 38
	.db #0x26	; 38
	.db #0x26	; 38
	.db #0x26	; 38
	.db #0x26	; 38
	.db #0x26	; 38
	.db #0x26	; 38
	.db #0x26	; 38
	.db #0x26	; 38
	.db #0x26	; 38
	.db #0x26	; 38
	.db #0x26	; 38
	.db #0x26	; 38
	.db #0x26	; 38
	.db #0x26	; 38
	.db #0x26	; 38
	.db #0x26	; 38
	.db #0x26	; 38
	.db #0x26	; 38
	.db #0x26	; 38
	.db #0x26	; 38
	.db #0x26	; 38
	.db #0x26	; 38
	.db #0x26	; 38
	.db #0x26	; 38
	.db #0x26	; 38
	.db #0x26	; 38
	.db #0x26	; 38
	.db #0x26	; 38
	.db #0x26	; 38
	.db #0x26	; 38
	.db #0x26	; 38
	.db #0x26	; 38
	.db #0x26	; 38
	.db #0x26	; 38
	.db #0x26	; 38
	.db #0x26	; 38
	.db #0x26	; 38
	.db #0x26	; 38
	.db #0x26	; 38
	.db #0x26	; 38
	.db #0x26	; 38
	.db #0x26	; 38
	.db #0x26	; 38
	.db #0x26	; 38
	.db #0x26	; 38
	.db #0x26	; 38
	.db #0x26	; 38
	.db #0x26	; 38
	.db #0x26	; 38
	.db #0x26	; 38
	.db #0x26	; 38
	.db #0x26	; 38
	.db #0x26	; 38
	.db #0x26	; 38
	.db #0x26	; 38
	.db #0x26	; 38
	.db #0x26	; 38
	.db #0x26	; 38
	.db #0x26	; 38
	.db #0x26	; 38
	.db #0x26	; 38
	.db #0x26	; 38
	.db #0x25	; 37
	.db #0x26	; 38
	.db #0x26	; 38
	.db #0x26	; 38
	.db #0x26	; 38
	.db #0x26	; 38
	.db #0x26	; 38
	.db #0x26	; 38
	.db #0x26	; 38
	.db #0x26	; 38
	.db #0x26	; 38
	.db #0x26	; 38
	.db #0x26	; 38
	.db #0x26	; 38
	.db #0x26	; 38
	.db #0x26	; 38
	.db #0x26	; 38
	.db #0x26	; 38
	.db #0x26	; 38
	.db #0x26	; 38
	.db #0x26	; 38
	.db #0x26	; 38
	.db #0x26	; 38
	.db #0x26	; 38
	.db #0x26	; 38
	.db #0x26	; 38
	.db #0x26	; 38
	.db #0x26	; 38
	.db #0x26	; 38
	.db #0x26	; 38
	.db #0x26	; 38
	.db #0x26	; 38
	.db #0x27	; 39
	.db #0x28	; 40
	.db #0x26	; 38
	.db #0x26	; 38
	.db #0x26	; 38
	.db #0x26	; 38
	.db #0x26	; 38
	.db #0x26	; 38
	.db #0x26	; 38
	.db #0x26	; 38
	.db #0x26	; 38
	.db #0x26	; 38
	.db #0x26	; 38
	.db #0x26	; 38
	.db #0x26	; 38
	.db #0x26	; 38
	.db #0x26	; 38
	.db #0x26	; 38
	.db #0x26	; 38
	.db #0x26	; 38
	.db #0x25	; 37
	.db #0x26	; 38
	.db #0x26	; 38
	.db #0x26	; 38
	.db #0x26	; 38
	.db #0x26	; 38
	.db #0x26	; 38
	.db #0x26	; 38
	.db #0x26	; 38
	.db #0x26	; 38
	.db #0x26	; 38
	.db #0x26	; 38
	.db #0x2a	; 42
	.db #0x29	; 41
	.db #0x26	; 38
	.db #0x26	; 38
	.db #0x26	; 38
	.db #0x26	; 38
	.db #0x26	; 38
	.db #0x26	; 38
	.db #0x26	; 38
	.db #0x26	; 38
	.db #0x26	; 38
	.db #0x26	; 38
	.db #0x26	; 38
	.db #0x26	; 38
	.db #0x26	; 38
	.db #0x26	; 38
	.db #0x26	; 38
	.db #0x26	; 38
	.db #0x26	; 38
	.db #0x26	; 38
	.db #0x27	; 39
	.db #0x28	; 40
	.db #0x26	; 38
	.db #0x26	; 38
	.db #0x26	; 38
	.db #0x26	; 38
	.db #0x26	; 38
	.db #0x26	; 38
	.db #0x26	; 38
	.db #0x26	; 38
	.db #0x26	; 38
	.db #0x26	; 38
	.db #0x26	; 38
	.db #0x26	; 38
	.db #0x26	; 38
	.db #0x26	; 38
	.db #0x26	; 38
	.db #0x26	; 38
	.db #0x26	; 38
	.db #0x26	; 38
	.db #0x26	; 38
	.db #0x26	; 38
	.db #0x26	; 38
	.db #0x26	; 38
	.db #0x26	; 38
	.db #0x26	; 38
	.db #0x26	; 38
	.db #0x26	; 38
	.db #0x26	; 38
	.db #0x26	; 38
	.db #0x26	; 38
	.db #0x26	; 38
	.db #0x2a	; 42
	.db #0x29	; 41
	.db #0x26	; 38
	.db #0x26	; 38
	.db #0x26	; 38
	.db #0x26	; 38
	.db #0x26	; 38
	.db #0x26	; 38
	.db #0x26	; 38
	.db #0x26	; 38
	.db #0x26	; 38
	.db #0x26	; 38
	.db #0x26	; 38
	.db #0x26	; 38
	.db #0x26	; 38
	.db #0x26	; 38
	.db #0x26	; 38
	.db #0x26	; 38
	.db #0x26	; 38
	.db #0x26	; 38
	.db #0x26	; 38
	.db #0x26	; 38
	.db #0x26	; 38
	.db #0x26	; 38
	.db #0x26	; 38
	.db #0x26	; 38
	.db #0x26	; 38
	.db #0x26	; 38
	.db #0x26	; 38
	.db #0x26	; 38
	.db #0x26	; 38
	.db #0x26	; 38
	.db #0x26	; 38
	.db #0x26	; 38
	.db #0x26	; 38
	.db #0x26	; 38
	.db #0x26	; 38
	.db #0x26	; 38
	.db #0x26	; 38
	.db #0x26	; 38
	.db #0x26	; 38
	.db #0x26	; 38
	.db #0x26	; 38
	.db #0x26	; 38
	.db #0x26	; 38
	.db #0x26	; 38
	.db #0x26	; 38
	.db #0x26	; 38
	.db #0x26	; 38
	.db #0x26	; 38
	.db #0x26	; 38
	.db #0x26	; 38
	.db #0x26	; 38
	.db #0x26	; 38
	.db #0x26	; 38
	.db #0x26	; 38
	.db #0x26	; 38
	.db #0x26	; 38
	.db #0x26	; 38
	.db #0x26	; 38
	.db #0x26	; 38
	.db #0x26	; 38
	.db #0x26	; 38
	.db #0x26	; 38
	.db #0x26	; 38
	.db #0x26	; 38
	.db #0x26	; 38
	.db #0x26	; 38
	.db #0x26	; 38
	.db #0x26	; 38
	.db #0x26	; 38
	.db #0x26	; 38
	.db #0x26	; 38
	.db #0x26	; 38
	.db #0x26	; 38
	.db #0x26	; 38
	.db #0x26	; 38
	.db #0x26	; 38
	.db #0x26	; 38
	.db #0x26	; 38
	.db #0x26	; 38
	.db #0x26	; 38
	.db #0x26	; 38
	.db #0x26	; 38
	.db #0x26	; 38
	.db #0x26	; 38
	.db #0x26	; 38
	.db #0x26	; 38
	.db #0x26	; 38
	.db #0x25	; 37
	.db #0x26	; 38
	.db #0x26	; 38
	.db #0x26	; 38
	.db #0x26	; 38
	.db #0x26	; 38
	.db #0x26	; 38
	.db #0x26	; 38
	.db #0x26	; 38
	.db #0x26	; 38
	.db #0x26	; 38
	.db #0x26	; 38
	.db #0x26	; 38
	.db #0x26	; 38
	.db #0x26	; 38
	.db #0x26	; 38
	.db #0x26	; 38
	.db #0x26	; 38
	.db #0x26	; 38
	.db #0x26	; 38
	.db #0x26	; 38
	.db #0x26	; 38
	.db #0x26	; 38
	.db #0x26	; 38
	.db #0x26	; 38
	.db #0x26	; 38
	.db #0x26	; 38
	.db #0x26	; 38
	.db #0x26	; 38
	.db #0x26	; 38
	.db #0x26	; 38
	.db #0x26	; 38
	.db #0x28	; 40
	.db #0x26	; 38
	.db #0x26	; 38
	.db #0x26	; 38
	.db #0x26	; 38
	.db #0x26	; 38
	.db #0x26	; 38
	.db #0x26	; 38
	.db #0x26	; 38
	.db #0x26	; 38
	.db #0x26	; 38
	.db #0x26	; 38
	.db #0x26	; 38
	.db #0x26	; 38
	.db #0x26	; 38
	.db #0x26	; 38
	.db #0x26	; 38
	.db #0x26	; 38
	.db #0x26	; 38
	.db #0x26	; 38
	.db #0x26	; 38
	.db #0x26	; 38
	.db #0x26	; 38
	.db #0x26	; 38
	.db #0x26	; 38
	.db #0x26	; 38
	.db #0x26	; 38
	.db #0x26	; 38
	.db #0x26	; 38
	.db #0x26	; 38
	.db #0x26	; 38
	.db #0x27	; 39
	.db #0x29	; 41
	.db #0x26	; 38
	.db #0x26	; 38
	.db #0x26	; 38
	.db #0x26	; 38
	.db #0x26	; 38
	.db #0x26	; 38
	.db #0x26	; 38
	.db #0x26	; 38
	.db #0x26	; 38
	.db #0x26	; 38
	.db #0x26	; 38
	.db #0x26	; 38
	.db #0x26	; 38
	.db #0x26	; 38
	.db #0x26	; 38
	.db #0x26	; 38
	.db #0x26	; 38
	.db #0x26	; 38
	.db #0x26	; 38
	.db #0x26	; 38
	.db #0x26	; 38
	.db #0x26	; 38
	.db #0x26	; 38
	.db #0x26	; 38
	.db #0x26	; 38
	.db #0x26	; 38
	.db #0x26	; 38
	.db #0x26	; 38
	.db #0x26	; 38
	.db #0x26	; 38
	.db #0x2a	; 42
	.db #0x26	; 38
	.db #0x26	; 38
	.db #0x26	; 38
	.db #0x26	; 38
	.db #0x26	; 38
	.db #0x26	; 38
	.db #0x26	; 38
	.db #0x26	; 38
	.db #0x26	; 38
	.db #0x26	; 38
	.db #0x26	; 38
	.db #0x26	; 38
	.db #0x26	; 38
	.db #0x26	; 38
	.db #0x26	; 38
	.db #0x26	; 38
	.db #0x26	; 38
	.db #0x26	; 38
	.db #0x26	; 38
	.db #0x26	; 38
	.db #0x26	; 38
	.db #0x26	; 38
	.db #0x26	; 38
	.db #0x26	; 38
	.db #0x26	; 38
	.db #0x26	; 38
	.db #0x26	; 38
	.db #0x26	; 38
	.db #0x26	; 38
	.db #0x26	; 38
	.db #0x26	; 38
	.db #0x26	; 38
	.db #0x26	; 38
	.db #0x26	; 38
	.db #0x26	; 38
	.db #0x26	; 38
	.db #0x26	; 38
	.db #0x26	; 38
	.db #0x26	; 38
	.db #0x26	; 38
	.db #0x26	; 38
	.db #0x26	; 38
	.db #0x26	; 38
	.db #0x26	; 38
	.db #0x26	; 38
	.db #0x26	; 38
	.db #0x26	; 38
	.db #0x26	; 38
	.db #0x26	; 38
	.db #0x26	; 38
	.db #0x26	; 38
	.db #0x26	; 38
	.db #0x26	; 38
	.db #0x26	; 38
	.db #0x26	; 38
	.db #0x26	; 38
	.db #0x26	; 38
	.db #0x26	; 38
	.db #0x26	; 38
	.db #0x26	; 38
	.db #0x26	; 38
	.db #0x26	; 38
	.db #0x26	; 38
	.db #0x26	; 38
	.db #0x26	; 38
	.db #0x26	; 38
	.db #0x26	; 38
	.db #0x26	; 38
	.db #0x26	; 38
	.db #0x26	; 38
	.db #0x26	; 38
	.db #0x26	; 38
	.db #0x26	; 38
	.db #0x26	; 38
	.db #0x26	; 38
	.db #0x26	; 38
	.db #0x26	; 38
	.db #0x26	; 38
	.db #0x26	; 38
	.db #0x26	; 38
	.db #0x26	; 38
	.db #0x26	; 38
	.db #0x26	; 38
	.db #0x26	; 38
	.db #0x26	; 38
	.db #0x26	; 38
	.db #0x26	; 38
	.db #0x26	; 38
	.db #0x26	; 38
	.db #0x26	; 38
	.db #0x26	; 38
	.db #0x26	; 38
	.db #0x26	; 38
	.db #0x26	; 38
	.db #0x26	; 38
	.db #0x26	; 38
	.db #0x26	; 38
	.db #0x26	; 38
	.db #0x26	; 38
	.db #0x26	; 38
	.db #0x26	; 38
	.db #0x26	; 38
	.db #0x26	; 38
	.db #0x26	; 38
	.db #0x26	; 38
	.db #0x26	; 38
	.db #0x26	; 38
	.db #0x26	; 38
	.db #0x26	; 38
	.db #0x26	; 38
	.db #0x26	; 38
	.db #0x26	; 38
	.db #0x26	; 38
	.db #0x26	; 38
	.db #0x26	; 38
	.db #0x26	; 38
	.db #0x26	; 38
	.db #0x26	; 38
	.db #0x26	; 38
	.db #0x26	; 38
	.db #0x26	; 38
	.db #0x26	; 38
	.db #0x26	; 38
	.db #0x26	; 38
	.db #0x26	; 38
	.db #0x26	; 38
	.db #0x26	; 38
	.db #0x26	; 38
	.db #0x26	; 38
	.db #0x26	; 38
	.db #0x26	; 38
	.db #0x26	; 38
	.db #0x26	; 38
	.db #0x26	; 38
	.db #0x26	; 38
	.db #0x26	; 38
	.db #0x26	; 38
	.db #0x26	; 38
	.db #0x26	; 38
	.db #0x26	; 38
	.db #0x26	; 38
	.db #0x26	; 38
	.db #0x26	; 38
	.db #0x26	; 38
	.db #0x26	; 38
	.db #0x25	; 37
	.db #0x26	; 38
	.db #0x26	; 38
	.db #0x26	; 38
	.db #0x26	; 38
	.db #0x26	; 38
	.db #0x26	; 38
	.db #0x26	; 38
	.db #0x26	; 38
	.db #0x26	; 38
	.db #0x26	; 38
	.db #0x26	; 38
	.db #0x26	; 38
	.db #0x26	; 38
	.db #0x26	; 38
	.db #0x26	; 38
	.db #0x26	; 38
	.db #0x26	; 38
	.db #0x26	; 38
	.db #0x26	; 38
	.db #0x26	; 38
	.db #0x26	; 38
	.db #0x26	; 38
	.db #0x26	; 38
	.db #0x26	; 38
	.db #0x26	; 38
	.db #0x26	; 38
	.db #0x26	; 38
	.db #0x26	; 38
	.db #0x26	; 38
	.db #0x26	; 38
	.db #0x26	; 38
	.db #0x27	; 39
	.db #0x28	; 40
	.db #0x26	; 38
	.db #0x26	; 38
	.db #0x26	; 38
	.db #0x26	; 38
	.db #0x26	; 38
	.db #0x26	; 38
	.db #0x26	; 38
	.db #0x26	; 38
	.db #0x26	; 38
	.db #0x26	; 38
	.db #0x26	; 38
	.db #0x26	; 38
	.db #0x26	; 38
	.db #0x26	; 38
	.db #0x26	; 38
	.db #0x26	; 38
	.db #0x26	; 38
	.db #0x26	; 38
	.db #0x26	; 38
	.db #0x26	; 38
	.db #0x26	; 38
	.db #0x26	; 38
	.db #0x26	; 38
	.db #0x26	; 38
	.db #0x26	; 38
	.db #0x26	; 38
	.db #0x26	; 38
	.db #0x26	; 38
	.db #0x26	; 38
	.db #0x26	; 38
	.db #0x2a	; 42
	.db #0x29	; 41
	.db #0x26	; 38
	.db #0x26	; 38
	.db #0x26	; 38
	.db #0x26	; 38
	.db #0x26	; 38
	.db #0x26	; 38
	.db #0x26	; 38
	.db #0x26	; 38
	.db #0x26	; 38
	.db #0x26	; 38
	.db #0x26	; 38
	.db #0x26	; 38
	.db #0x26	; 38
	.db #0x26	; 38
	.db #0x26	; 38
	.db #0x26	; 38
	.db #0x26	; 38
	.db #0x26	; 38
	.db #0x26	; 38
	.db #0x26	; 38
	.db #0x26	; 38
	.db #0x26	; 38
	.db #0x26	; 38
	.db #0x26	; 38
	.db #0x26	; 38
	.db #0x26	; 38
	.db #0x26	; 38
	.db #0x26	; 38
	.db #0x26	; 38
	.db #0x26	; 38
	.db #0x26	; 38
	.db #0x26	; 38
	.db #0x26	; 38
	.db #0x26	; 38
	.db #0x26	; 38
	.db #0x26	; 38
	.db #0x26	; 38
	.db #0x26	; 38
	.db #0x26	; 38
	.db #0x26	; 38
	.db #0x26	; 38
	.db #0x26	; 38
	.db #0x26	; 38
	.db #0x26	; 38
	.db #0x26	; 38
	.db #0x26	; 38
	.db #0x26	; 38
	.db #0x26	; 38
	.db #0x26	; 38
	.db #0x26	; 38
	.db #0x26	; 38
	.db #0x26	; 38
	.db #0x26	; 38
	.db #0x26	; 38
	.db #0x26	; 38
	.db #0x26	; 38
	.db #0x26	; 38
	.db #0x26	; 38
	.db #0x26	; 38
	.db #0x26	; 38
	.db #0x26	; 38
	.db #0x26	; 38
	.db #0x26	; 38
	.db #0x26	; 38
	.db #0x26	; 38
	.db #0x26	; 38
	.db #0x26	; 38
	.db #0x26	; 38
	.db #0x26	; 38
	.db #0x26	; 38
	.db #0x26	; 38
	.db #0x26	; 38
	.db #0x26	; 38
	.db #0x26	; 38
	.db #0x26	; 38
	.db #0x26	; 38
	.db #0x26	; 38
	.db #0x26	; 38
	.db #0x26	; 38
	.db #0x26	; 38
	.db #0x26	; 38
	.db #0x26	; 38
	.db #0x26	; 38
	.db #0x26	; 38
	.db #0x26	; 38
	.db #0x26	; 38
	.db #0x26	; 38
	.db #0x26	; 38
	.db #0x26	; 38
	.db #0x26	; 38
	.db #0x26	; 38
	.db #0x26	; 38
	.db #0x26	; 38
	.db #0x26	; 38
	.db #0x26	; 38
	.db #0x26	; 38
	.db #0x26	; 38
	.db #0x26	; 38
	.db #0x26	; 38
	.db #0x26	; 38
	.db #0x26	; 38
	.db #0x26	; 38
	.db #0x26	; 38
	.db #0x26	; 38
	.db #0x26	; 38
	.db #0x26	; 38
	.db #0x26	; 38
	.db #0x26	; 38
	.db #0x26	; 38
	.db #0x26	; 38
	.db #0x26	; 38
	.db #0x26	; 38
	.db #0x26	; 38
	.db #0x26	; 38
	.db #0x26	; 38
	.db #0x26	; 38
	.db #0x26	; 38
	.db #0x26	; 38
	.db #0x26	; 38
	.db #0x26	; 38
	.db #0x26	; 38
	.db #0x26	; 38
	.db #0x26	; 38
	.db #0x26	; 38
	.db #0x26	; 38
	.db #0x26	; 38
	.db #0x26	; 38
	.db #0x26	; 38
	.db #0x26	; 38
	.db #0x26	; 38
	.db #0x26	; 38
	.db #0x26	; 38
	.db #0x26	; 38
	.db #0x26	; 38
	.db #0x26	; 38
	.db #0x26	; 38
	.db #0x26	; 38
	.db #0x26	; 38
	.db #0x26	; 38
	.db #0x26	; 38
	.db #0x26	; 38
	.db #0x26	; 38
	.db #0x26	; 38
	.db #0x26	; 38
	.db #0x26	; 38
	.db #0x26	; 38
	.db #0x26	; 38
	.db #0x26	; 38
	.db #0x26	; 38
	.db #0x26	; 38
	.db #0x26	; 38
	.db #0x26	; 38
	.db #0x26	; 38
	.db #0x26	; 38
	.db #0x26	; 38
	.db #0x26	; 38
	.db #0x26	; 38
	.db #0x26	; 38
	.db #0x26	; 38
	.db #0x26	; 38
	.db #0x26	; 38
	.db #0x26	; 38
	.db #0x26	; 38
	.db #0x26	; 38
	.db #0x26	; 38
	.db #0x26	; 38
	.db #0x26	; 38
	.db #0x26	; 38
	.db #0x26	; 38
	.db #0x26	; 38
	.db #0x26	; 38
	.db #0x26	; 38
	.db #0x26	; 38
	.db #0x26	; 38
	.db #0x26	; 38
	.db #0x26	; 38
	.db #0x26	; 38
	.db #0x26	; 38
	.db #0x26	; 38
	.db #0x26	; 38
	.db #0x26	; 38
	.db #0x26	; 38
	.db #0x26	; 38
	.db #0x26	; 38
	.db #0x27	; 39
	.db #0x28	; 40
	.db #0x26	; 38
	.db #0x26	; 38
	.db #0x26	; 38
	.db #0x26	; 38
	.db #0x26	; 38
	.db #0x26	; 38
	.db #0x26	; 38
	.db #0x26	; 38
	.db #0x26	; 38
	.db #0x26	; 38
	.db #0x26	; 38
	.db #0x26	; 38
	.db #0x26	; 38
	.db #0x26	; 38
	.db #0x26	; 38
	.db #0x26	; 38
	.db #0x26	; 38
	.db #0x26	; 38
	.db #0x26	; 38
_backgroundtiles:
	.db #0x00	; 0
	.db #0x00	; 0
	.db #0x00	; 0
	.db #0x00	; 0
	.db #0x00	; 0
	.db #0x00	; 0
	.db #0x18	; 24
	.db #0x18	; 24
	.db #0x18	; 24
	.db #0x18	; 24
	.db #0x00	; 0
	.db #0x00	; 0
	.db #0x00	; 0
	.db #0x00	; 0
	.db #0x00	; 0
	.db #0x00	; 0
	.db #0x00	; 0
	.db #0x00	; 0
	.db #0x00	; 0
	.db #0x00	; 0
	.db #0x00	; 0
	.db #0x00	; 0
	.db #0x00	; 0
	.db #0x00	; 0
	.db #0x00	; 0
	.db #0x00	; 0
	.db #0x00	; 0
	.db #0x00	; 0
	.db #0x00	; 0
	.db #0x00	; 0
	.db #0x00	; 0
	.db #0x00	; 0
	.db #0x1f	; 31
	.db #0x1f	; 31
	.db #0x3f	; 63
	.db #0x3f	; 63
	.db #0x7f	; 127
	.db #0x7f	; 127
	.db #0xff	; 255
	.db #0xff	; 255
	.db #0xff	; 255
	.db #0xff	; 255
	.db #0xff	; 255
	.db #0xff	; 255
	.db #0xff	; 255
	.db #0xff	; 255
	.db #0xff	; 255
	.db #0xff	; 255
	.db #0xf8	; 248
	.db #0xf8	; 248
	.db #0xfc	; 252
	.db #0xfc	; 252
	.db #0xfe	; 254
	.db #0xfe	; 254
	.db #0xff	; 255
	.db #0xff	; 255
	.db #0xff	; 255
	.db #0xff	; 255
	.db #0xff	; 255
	.db #0xff	; 255
	.db #0xff	; 255
	.db #0xff	; 255
	.db #0xff	; 255
	.db #0xff	; 255
	.db #0xff	; 255
	.db #0xff	; 255
	.db #0xff	; 255
	.db #0xff	; 255
	.db #0xff	; 255
	.db #0xff	; 255
	.db #0xff	; 255
	.db #0xff	; 255
	.db #0xff	; 255
	.db #0xff	; 255
	.db #0xfe	; 254
	.db #0xfe	; 254
	.db #0xfc	; 252
	.db #0xfc	; 252
	.db #0xf8	; 248
	.db #0xf8	; 248
	.db #0xff	; 255
	.db #0xff	; 255
	.db #0xff	; 255
	.db #0xff	; 255
	.db #0xff	; 255
	.db #0xff	; 255
	.db #0xff	; 255
	.db #0xff	; 255
	.db #0xff	; 255
	.db #0xff	; 255
	.db #0x7f	; 127
	.db #0x7f	; 127
	.db #0x3f	; 63
	.db #0x3f	; 63
	.db #0x1f	; 31
	.db #0x1f	; 31
_healthblock:
	.db #0xfe	; 254
	.db #0xfe	; 254
	.db #0xfe	; 254
	.db #0xfe	; 254
	.db #0xfe	; 254
	.db #0xfe	; 254
	.db #0xfe	; 254
	.db #0xfe	; 254
	.db #0xfe	; 254
	.db #0xfe	; 254
	.db #0xfe	; 254
	.db #0xfe	; 254
	.db #0xfe	; 254
	.db #0xfe	; 254
	.db #0x00	; 0
	.db #0x00	; 0
_BLANK:
	.db #0x26	; 38
;main.c:47: void setHealthBar(uint8_t row, uint8_t hp) {
;	---------------------------------
; Function setHealthBar
; ---------------------------------
_setHealthBar::
	add	sp, #-5
;main.c:48: if (hp >= 80) {
	ldhl	sp,	#8
	ld	a, (hl)
	sub	a, #0x50
	jr	C, 00102$
;main.c:49: unsigned char blockmap[] = {0x50,0x50,0x50,0x50,0x50};
	ldhl	sp,	#0
	ld	c, l
	ld	b, h
	ld	(hl), #0x50
	ld	l, c
;	spillPairReg hl
;	spillPairReg hl
	ld	h, b
;	spillPairReg hl
;	spillPairReg hl
	inc	hl
	ld	(hl), #0x50
	ld	l, c
;	spillPairReg hl
;	spillPairReg hl
	ld	h, b
;	spillPairReg hl
;	spillPairReg hl
	inc	hl
	inc	hl
	ld	(hl), #0x50
	ld	l, c
;	spillPairReg hl
;	spillPairReg hl
	ld	h, b
;	spillPairReg hl
;	spillPairReg hl
	inc	hl
	inc	hl
	inc	hl
	ld	(hl), #0x50
	ld	hl, #0x0004
	add	hl, bc
	ld	(hl), #0x50
;main.c:50: set_win_tiles(5,row,5,1,blockmap);
	push	bc
	ld	hl, #0x105
	push	hl
	ldhl	sp,	#11
	ld	h, (hl)
	ld	l, #0x05
	push	hl
	call	_set_win_tiles
	add	sp, #6
;main.c:51: return;
	jp	00109$
00102$:
;main.c:53: if (hp >= 60) {
	ldhl	sp,	#8
	ld	a, (hl)
	sub	a, #0x3c
	jr	C, 00104$
;main.c:54: unsigned char blockmap[] = {0x50,0x50,0x50,0x50,0x00};
	ldhl	sp,	#0
	ld	c, l
	ld	b, h
	ld	(hl), #0x50
	ld	l, c
;	spillPairReg hl
;	spillPairReg hl
	ld	h, b
;	spillPairReg hl
;	spillPairReg hl
	inc	hl
	ld	(hl), #0x50
	ld	l, c
;	spillPairReg hl
;	spillPairReg hl
	ld	h, b
;	spillPairReg hl
;	spillPairReg hl
	inc	hl
	inc	hl
	ld	(hl), #0x50
	ld	l, c
;	spillPairReg hl
;	spillPairReg hl
	ld	h, b
;	spillPairReg hl
;	spillPairReg hl
	inc	hl
	inc	hl
	inc	hl
	ld	(hl), #0x50
	ld	hl, #0x0004
	add	hl, bc
	ld	(hl), #0x00
;main.c:55: set_win_tiles(5,row,5,1,blockmap);
	push	bc
	ld	hl, #0x105
	push	hl
	ldhl	sp,	#11
	ld	h, (hl)
	ld	l, #0x05
	push	hl
	call	_set_win_tiles
	add	sp, #6
;main.c:56: return;
	jp	00109$
00104$:
;main.c:58: if (hp >= 40) {
	ldhl	sp,	#8
	ld	a, (hl)
	sub	a, #0x28
	jr	C, 00106$
;main.c:59: unsigned char blockmap[] = {0x50,0x50,0x50,0x00,0x00};
	ldhl	sp,	#0
	ld	c, l
	ld	b, h
	ld	(hl), #0x50
	ld	l, c
;	spillPairReg hl
;	spillPairReg hl
	ld	h, b
;	spillPairReg hl
;	spillPairReg hl
	inc	hl
	ld	(hl), #0x50
	ld	l, c
;	spillPairReg hl
;	spillPairReg hl
	ld	h, b
;	spillPairReg hl
;	spillPairReg hl
	inc	hl
	inc	hl
	ld	(hl), #0x50
	ld	e, c
	ld	d, b
	inc	de
	inc	de
	inc	de
	xor	a, a
	ld	(de), a
	ld	hl, #0x0004
	add	hl, bc
	ld	(hl), #0x00
;main.c:60: set_win_tiles(5,row,5,1,blockmap);
	push	bc
	ld	hl, #0x105
	push	hl
	ldhl	sp,	#11
	ld	h, (hl)
	ld	l, #0x05
	push	hl
	call	_set_win_tiles
	add	sp, #6
;main.c:61: return;
	jr	00109$
00106$:
;main.c:63: if (hp >= 20) {
	ldhl	sp,	#8
	ld	a, (hl)
	sub	a, #0x14
	jr	C, 00108$
;main.c:64: unsigned char blockmap[] = {0x50,0x50,0x00,0x00,0x00};
	ldhl	sp,	#0
	ld	c, l
	ld	b, h
	ld	(hl), #0x50
	ld	l, c
;	spillPairReg hl
;	spillPairReg hl
	ld	h, b
;	spillPairReg hl
;	spillPairReg hl
	inc	hl
	ld	(hl), #0x50
	ld	e, c
	ld	d, b
	inc	de
	inc	de
	xor	a, a
	ld	(de), a
	ld	e, c
	ld	d, b
	inc	de
	inc	de
	inc	de
	xor	a, a
	ld	(de), a
	ld	hl, #0x0004
	add	hl, bc
	ld	(hl), #0x00
;main.c:65: set_win_tiles(5,row,5,1,blockmap);
	push	bc
	ld	hl, #0x105
	push	hl
	ldhl	sp,	#11
	ld	h, (hl)
	ld	l, #0x05
	push	hl
	call	_set_win_tiles
	add	sp, #6
;main.c:66: return;
	jr	00109$
00108$:
;main.c:68: unsigned char blockmap[] = {0x50,0x00,0x00,0x00,0x00};
	ldhl	sp,	#0
	ld	c, l
	ld	b, h
	ld	(hl), #0x50
	ld	e, c
	ld	d, b
	inc	de
	xor	a, a
	ld	(de), a
	ld	e, c
	ld	d, b
	inc	de
	inc	de
	xor	a, a
	ld	(de), a
	ld	e, c
	ld	d, b
	inc	de
	inc	de
	inc	de
	xor	a, a
	ld	(de), a
	ld	hl, #0x0004
	add	hl, bc
	ld	(hl), #0x00
;main.c:69: set_win_tiles(5,row,5,1,blockmap);
	push	bc
	ld	hl, #0x105
	push	hl
	ldhl	sp,	#11
	ld	h, (hl)
	ld	l, #0x05
	push	hl
	call	_set_win_tiles
	add	sp, #6
;main.c:70: return;
00109$:
;main.c:72: }
	add	sp, #5
	ret
;main.c:74: void updateDirection() {
;	---------------------------------
; Function updateDirection
; ---------------------------------
_updateDirection::
	add	sp, #-4
;main.c:78: if ((joydata & J_RIGHT) && !(joydata & J_UP) && !(joydata & J_DOWN)) {
	ld	hl, #_joydata
	ld	e, (hl)
	ld	a, e
	and	a, #0x01
	ldhl	sp,	#0
	ld	(hl+), a
	xor	a, a
	ld	(hl+), a
	ld	a, e
	and	a, #0x04
	ld	(hl+), a
	xor	a, a
	ld	(hl-), a
	dec	hl
	ld	a, e
	and	a, #0x08
	ld	c, a
	ld	b, #0x00
	ld	a, (hl-)
	or	a, (hl)
	jr	Z, 00102$
	ldhl	sp,	#3
	ld	a, (hl-)
	or	a, (hl)
	jr	NZ, 00102$
	ld	a, b
	or	a, c
	jr	NZ, 00102$
;main.c:79: xDir = 1;
	ld	hl, #_xDir
	ld	(hl), #0x01
;main.c:80: yDir = 0;
	ld	hl, #_yDir
	ld	(hl), #0x00
00102$:
;main.c:82: if ((joydata & J_LEFT) && !(joydata & J_UP) && !(joydata & J_DOWN)) {
	ld	a, e
	and	a, #0x02
	ld	e, a
	ld	d, #0x00
	ld	a, d
	or	a, e
	jr	Z, 00106$
	ldhl	sp,	#3
	ld	a, (hl-)
	or	a, (hl)
	jr	NZ, 00106$
	ld	a, b
	or	a, c
	jr	NZ, 00106$
;main.c:83: xDir = -1;
	ld	hl, #_xDir
	ld	(hl), #0xff
;main.c:84: yDir = 0;
	ld	hl, #_yDir
	ld	(hl), #0x00
00106$:
;main.c:86: if ((joydata & J_UP) && !(joydata & J_LEFT) && !(joydata & J_RIGHT)) {
	ldhl	sp,	#3
	ld	a, (hl-)
	or	a, (hl)
	jr	Z, 00110$
	ld	a, d
	or	a, e
	jr	NZ, 00110$
	dec	hl
	ld	a, (hl-)
	or	a, (hl)
	jr	NZ, 00110$
;main.c:87: xDir = 0;
	ld	hl, #_xDir
	ld	(hl), #0x00
;main.c:88: yDir = -1;
	ld	hl, #_yDir
	ld	(hl), #0xff
00110$:
;main.c:90: if ((joydata & J_DOWN) && !(joydata & J_LEFT) && !(joydata & J_RIGHT)) {
	ld	a, b
	or	a, c
	jr	Z, 00114$
	ld	a, d
	or	a, e
	jr	NZ, 00114$
	ldhl	sp,	#1
	ld	a, (hl-)
	or	a, (hl)
	jr	NZ, 00114$
;main.c:91: xDir = 0;
	ld	hl, #_xDir
	ld	(hl), #0x00
;main.c:92: yDir = 1;
	ld	hl, #_yDir
	ld	(hl), #0x01
00114$:
;main.c:96: if ((joydata & J_UP) && (joydata & J_RIGHT)) {
	ldhl	sp,	#3
	ld	a, (hl-)
	or	a, (hl)
	jr	Z, 00118$
	dec	hl
	ld	a, (hl-)
	or	a, (hl)
	jr	Z, 00118$
;main.c:97: xDir = 1;
	ld	hl, #_xDir
	ld	(hl), #0x01
;main.c:98: yDir = -1;
	ld	hl, #_yDir
	ld	(hl), #0xff
00118$:
;main.c:100: if ((joydata & J_UP) && (joydata & J_LEFT)) {
	ldhl	sp,	#3
	ld	a, (hl-)
	or	a, (hl)
	jr	Z, 00121$
	ld	a, d
	or	a, e
	jr	Z, 00121$
;main.c:101: xDir = -1;
	ld	hl, #_xDir
	ld	(hl), #0xff
;main.c:102: yDir = -1;
	ld	hl, #_yDir
	ld	(hl), #0xff
00121$:
;main.c:104: if ((joydata & J_DOWN) && (joydata & J_RIGHT)) {
	ld	a, b
	or	a, c
	jr	Z, 00124$
	ldhl	sp,	#1
	ld	a, (hl-)
	or	a, (hl)
	jr	Z, 00124$
;main.c:105: xDir = 1;
	ld	hl, #_xDir
	ld	(hl), #0x01
;main.c:106: yDir = 1;
	ld	hl, #_yDir
	ld	(hl), #0x01
00124$:
;main.c:108: if ((joydata & J_DOWN) && (joydata & J_LEFT)) {
	ld	a, b
	or	a, c
	jr	Z, 00127$
	ld	a, d
	or	a, e
	jr	Z, 00127$
;main.c:109: xDir = -1;
	ld	hl, #_xDir
	ld	(hl), #0xff
;main.c:110: yDir = 1;
	ld	hl, #_yDir
	ld	(hl), #0x01
00127$:
;main.c:115: if (xDir == 0 && yDir == 0) {
	ld	a, (#_xDir)
	or	a, a
	jr	NZ, 00130$
	ld	a, (#_yDir)
	or	a, a
;main.c:116: return;
	jp	Z,00157$
00130$:
;main.c:119: uint8_t direction = 0;
	ld	c, #0x00
;main.c:121: if (xDir == 0 && yDir < 0) {
	ld	a, (#_yDir)
	rlca
	and	a,#0x01
	ldhl	sp,	#2
	ld	(hl), a
	ld	a, (#_xDir)
	or	a, a
	jr	NZ, 00133$
	ldhl	sp,	#2
	ld	a, (hl)
	or	a, a
	jr	Z, 00133$
;main.c:122: direction = 0;
	ld	c, #0x00
00133$:
;main.c:124: if (xDir > 0 && yDir < 0) {
	ld	hl, #_xDir
	ld	e, (hl)
	xor	a, a
	ld	d, a
	sub	a, (hl)
	bit	7, e
	jr	Z, 00349$
	bit	7, d
	jr	NZ, 00350$
	cp	a, a
	jr	00350$
00349$:
	bit	7, d
	jr	Z, 00350$
	scf
00350$:
	ld	a, #0x00
	rla
	ld	b, a
	or	a, a
	jr	Z, 00136$
	ldhl	sp,	#2
	ld	a, (hl)
	or	a, a
	jr	Z, 00136$
;main.c:125: direction = 1;
	ld	c, #0x01
00136$:
;main.c:127: if (xDir > 0 && yDir == 0) {
	ld	a, b
	or	a, a
	jr	Z, 00139$
	ld	a, (#_yDir)
	or	a, a
	jr	NZ, 00139$
;main.c:128: direction = 2;
	ld	c, #0x02
00139$:
;main.c:130: if (xDir > 0 && yDir > 0) {
	ld	hl, #_yDir
	ld	e, (hl)
	xor	a, a
	ld	d, a
	sub	a, (hl)
	bit	7, e
	jr	Z, 00351$
	bit	7, d
	jr	NZ, 00352$
	cp	a, a
	jr	00352$
00351$:
	bit	7, d
	jr	Z, 00352$
	scf
00352$:
	ld	a, #0x00
	rla
	ldhl	sp,	#3
	ld	(hl), a
	ld	a, b
	or	a, a
	jr	Z, 00142$
	ld	a, (hl)
	or	a, a
	jr	Z, 00142$
;main.c:131: direction = 3;
	ld	c, #0x03
00142$:
;main.c:133: if (xDir == 0 && yDir > 0) {
	ld	a, (#_xDir)
	or	a, a
	jr	NZ, 00145$
	ldhl	sp,	#3
	ld	a, (hl)
	or	a, a
	jr	Z, 00145$
;main.c:134: direction = 4;
	ld	c, #0x04
00145$:
;main.c:136: if (xDir < 0 && yDir > 0) {
	ld	a, (#_xDir)
	rlca
	and	a,#0x01
	ld	b, a
	or	a, a
	jr	Z, 00148$
	ldhl	sp,	#3
	ld	a, (hl)
	or	a, a
	jr	Z, 00148$
;main.c:137: direction = 5;
	ld	c, #0x05
00148$:
;main.c:139: if (xDir < 0 && yDir == 0) {
	ld	a, b
	or	a, a
	jr	Z, 00151$
	ld	a, (#_yDir)
	or	a, a
	jr	NZ, 00151$
;main.c:140: direction = 6;
	ld	c, #0x06
00151$:
;main.c:142: if (xDir < 0 && yDir < 0) {
	ld	a, b
	or	a, a
	jr	Z, 00154$
	ldhl	sp,	#2
	ld	a, (hl)
	or	a, a
	jr	Z, 00154$
;main.c:143: direction = 7;
	ld	c, #0x07
00154$:
;/home/milan/Documents/gameboy/gbdk/include/gb/gb.h:1447: shadow_OAM[nb].tile=tile;
	ld	hl, #(_shadow_OAM + 2)
	ld	(hl), c
;main.c:146: set_sprite_tile(0, direction);
00157$:
;main.c:147: }
	add	sp, #4
	ret
;main.c:150: int8_t clamp( int8_t value, int8_t min, int8_t max )
;	---------------------------------
; Function clamp
; ---------------------------------
_clamp::
;main.c:152: return (value < min) ? min : (value > max) ? max : value;
	ldhl	sp,	#3
	ld	a, (hl-)
	ld	e, a
	ld	d, (hl)
	ld	a, (hl+)
	sub	a, (hl)
	bit	7, e
	jr	Z, 00117$
	bit	7, d
	jr	NZ, 00118$
	cp	a, a
	jr	00118$
00117$:
	bit	7, d
	jr	Z, 00118$
	scf
00118$:
	jr	NC, 00103$
	ldhl	sp,	#3
	ld	e, (hl)
	ret
00103$:
	ldhl	sp,	#2
	ld	a, (hl+)
	inc	hl
	ld	e, a
	ld	d, (hl)
	ld	a, (hl-)
	dec	hl
	sub	a, (hl)
	bit	7, e
	jr	Z, 00119$
	bit	7, d
	jr	NZ, 00120$
	cp	a, a
	jr	00120$
00119$:
	bit	7, d
	jr	Z, 00120$
	scf
00120$:
	jr	NC, 00105$
	ldhl	sp,	#4
	ld	e, (hl)
	ret
00105$:
	ldhl	sp,	#2
	ld	e, (hl)
;main.c:153: }
	ret
;main.c:156: uint8_t uClamp( uint8_t value, uint8_t min, uint8_t max )
;	---------------------------------
; Function uClamp
; ---------------------------------
_uClamp::
;main.c:158: return (value < min) ? min : (value > max) ? max : value;
	ldhl	sp,	#2
	ld	a, (hl+)
	sub	a, (hl)
	jr	NC, 00103$
	ld	e, (hl)
	ret
00103$:
	ldhl	sp,	#4
	ld	a, (hl-)
	dec	hl
	sub	a, (hl)
	jr	NC, 00105$
	inc	hl
	inc	hl
	ld	e, (hl)
	ret
00105$:
	ldhl	sp,	#2
	ld	e, (hl)
;main.c:159: }
	ret
;main.c:161: uint16_t u16Clamp( uint16_t value, uint16_t min, uint16_t max )
;	---------------------------------
; Function u16Clamp
; ---------------------------------
_u16Clamp::
;main.c:163: return (value < min) ? min : (value > max) ? max : value;
	ldhl	sp,	#2
	ld	e, l
	ld	d, h
	ldhl	sp,	#4
	ld	a, (de)
	inc	de
	sub	a, (hl)
	inc	hl
	ld	a, (de)
	sbc	a, (hl)
	jr	NC, 00103$
	ldhl	sp,	#4
	ld	a, (hl+)
	ld	e, a
	ld	d, (hl)
	ret
00103$:
	ldhl	sp,	#6
	ld	e, l
	ld	d, h
	ldhl	sp,	#2
	ld	a, (de)
	inc	de
	sub	a, (hl)
	inc	hl
	ld	a, (de)
	sbc	a, (hl)
	jr	NC, 00105$
	ldhl	sp,	#6
	ld	a, (hl+)
	ld	e, a
	ld	d, (hl)
	ret
00105$:
	ldhl	sp,	#2
	ld	a, (hl+)
	ld	e, a
	ld	d, (hl)
;main.c:164: }
	ret
;main.c:166: int8_t abs(int8_t value) {
;	---------------------------------
; Function abs
; ---------------------------------
_abs::
;main.c:167: if (value >= 0) return value;
	ldhl	sp,	#2
	bit	7, (hl)
	jr	NZ, 00102$
	ld	e, (hl)
	ret
00102$:
;main.c:168: else return - value;
	xor	a, a
	ldhl	sp,	#2
	sub	a, (hl)
	ld	e, a
;main.c:169: }
	ret
;main.c:172: void move() {
;	---------------------------------
; Function move
; ---------------------------------
_move::
	add	sp, #-8
;main.c:176: if (joydata & J_A) {
	ld	a, (#_joydata)
	bit	4, a
	jr	Z, 00102$
;main.c:177: xSpeed += xDir + xDir + xDir;
	ld	hl, #_xDir
	ld	a, (hl)
	add	a, a
	add	a, (hl)
	ld	hl, #_xSpeed
	add	a, (hl)
	ld	(hl), a
;main.c:178: ySpeed += yDir + yDir + yDir;
	ld	hl, #_yDir
	ld	a, (hl)
	add	a, a
	add	a, (hl)
	ld	hl, #_ySpeed
	add	a, (hl)
	ld	(hl), a
00102$:
;main.c:182: xSpeed = clamp(xSpeed, -100, 100);
	ld	hl, #0x649c
	push	hl
	ld	a, (#_xSpeed)
	push	af
	inc	sp
	call	_clamp
	add	sp, #3
	ld	hl, #_xSpeed
	ld	(hl), e
;main.c:183: ySpeed = clamp(ySpeed, -100, 100);
	ld	hl, #0x649c
	push	hl
	ld	a, (#_ySpeed)
	push	af
	inc	sp
	call	_clamp
	add	sp, #3
	ld	hl, #_ySpeed
	ld	(hl), e
;main.c:188: uint8_t xCollisionPoint = playerDrawX -4; 
	ld	hl, #_playerDrawX
	ld	b, (hl)
	ld	a, b
	add	a, #0xfc
	ld	c, a
;main.c:190: if (xSpeed > 0) {
	ld	hl, #_xSpeed
	ld	e, (hl)
	xor	a, a
	ld	d, a
	sub	a, (hl)
	bit	7, e
	jr	Z, 00229$
	bit	7, d
	jr	NZ, 00230$
	cp	a, a
	jr	00230$
00229$:
	bit	7, d
	jr	Z, 00230$
	scf
00230$:
	jr	NC, 00104$
;main.c:191: xCollisionPoint = playerDrawX; //right edge
	ld	hl, #_playerDrawX
	ld	c, (hl)
00104$:
;main.c:193: if (xSpeed < 0) {
	ld	a, (#_xSpeed)
	bit	7, a
	jr	Z, 00106$
;main.c:194: xCollisionPoint = playerDrawX -8; //left edge
	ld	a, b
	add	a, #0xf8
	ld	c, a
00106$:
;main.c:198: int16_t bgindX = ((xCollisionPoint + bgX) >> 3)%32;
	ld	b, #0x00
	ld	a, c
	ld	hl, #_bgX
	add	a, (hl)
	inc	hl
	ld	c, a
	ld	a, b
	adc	a, (hl)
	ld	b, a
	sra	b
	rr	c
	sra	b
	rr	c
	sra	b
	rr	c
	ld	de, #0x0020
	push	de
	push	bc
	call	__modsint
	add	sp, #4
;main.c:202: uint8_t bgindY = ((playerDrawY-12 + bgY) >> 3)%32; 
	ld	a, (#_playerDrawY)
	ld	b, #0x00
	add	a, #0xf4
	ld	c, a
	ld	a, b
	adc	a, #0xff
	ld	b, a
	ld	a, c
	ld	hl, #_bgY
	add	a, (hl)
	inc	hl
	ld	c, a
	ld	a, b
	adc	a, (hl)
	ld	b, a
	sra	b
	rr	c
	sra	b
	rr	c
	sra	b
	rr	c
	push	de
	ld	hl, #0x0020
	push	hl
	push	bc
	call	__modsint
	add	sp, #4
	ld	l, e
;	spillPairReg hl
;	spillPairReg hl
;	spillPairReg hl
;	spillPairReg hl
	pop	de
;main.c:205: uint16_t ind = 32*bgindY + bgindX;
	ld	h, #0x00
;	spillPairReg hl
;	spillPairReg hl
	add	hl, hl
	add	hl, hl
	add	hl, hl
	add	hl, hl
	add	hl, hl
	add	hl, de
;main.c:206: uint8_t result = background1[ind] != BLANK[0];
	ld	bc,#_background1
	add	hl,bc
	ld	c, (hl)
	ld	hl, #_BLANK
	ld	b, (hl)
	ld	a, c
	sub	a, b
	ld	a, #0x01
	jr	Z, 00232$
	xor	a, a
00232$:
;main.c:207: if (result == 0) {
	xor	a,#0x01
	jp	NZ, 00111$
;main.c:208: playerX+=xSpeed;
	ld	a, (#_xSpeed)
	ld	c, a
	rlca
	sbc	a, a
	ld	b, a
	ld	hl, #_playerX
	ld	l, (hl)
;	spillPairReg hl
;	spillPairReg hl
	ld	a, (_playerX + 1)
	ld	h, a
;	spillPairReg hl
;	spillPairReg hl
	add	hl, bc
	ld	c, l
	ld	a, h
	ld	hl, #_playerX
	ld	(hl), c
	inc	hl
;main.c:210: uint16_t limitedPlayerX = u16Clamp(playerX, 58<<5, 110<<5);//0->160, with 8 px margin for left edge & 50px for the edges
	ld	(hl-), a
	ld	de, #0x0dc0
	push	de
	ld	de, #0x0740
	push	de
	ld	a, (hl+)
	ld	e, a
	ld	d, (hl)
	push	de
	call	_u16Clamp
	add	sp, #6
	ld	c, e
	ld	b, d
;main.c:212: int16_t xOverflow = (playerX - limitedPlayerX);
	ld	hl, #_playerX
	ld	a, (hl+)
	ld	e, a
	ld	d, (hl)
	ld	a, e
	sub	a, c
	ld	e, a
	ld	a, d
	sbc	a, b
	ldhl	sp,	#5
	ld	(hl-), a
	ld	(hl), e
;main.c:213: if (xOverflow >= 0) {
	ld	a, (hl+)
	inc	hl
	ld	(hl-), a
	ld	a, (hl+)
	inc	hl
	ld	(hl), a
	bit	7, (hl)
	jr	NZ, 00108$
;main.c:214: xOverflow = xOverflow >> 5;
	dec	hl
	dec	hl
	dec	hl
	ld	a, (hl+)
	ld	e, a
	ld	d, (hl)
	sra	d
	rr	e
	sra	d
	rr	e
	sra	d
	rr	e
	sra	d
	rr	e
	sra	d
	rr	e
	jr	00109$
00108$:
;main.c:217: xOverflow = -((-xOverflow) >> 5);
	ld	de, #0x0000
	ldhl	sp,	#4
	ld	a,	(hl+)
	ld	h, (hl)
	ld	l, a
	ld	a, e
	sub	a, l
	ld	e, a
	ld	a, d
	sbc	a, h
	ldhl	sp,	#7
	ld	(hl-), a
	ld	a, e
	ld	(hl+), a
	dec	hl
	ld	a, (hl+)
	ld	e, a
	ld	d, (hl)
	sra	d
	rr	e
	sra	d
	rr	e
	sra	d
	rr	e
	sra	d
	rr	e
	sra	d
	rr	e
	xor	a, a
	sub	a, e
	ld	e, a
	sbc	a, a
	sub	a, d
	ld	d, a
00109$:
;main.c:219: bgX += xOverflow;
	ld	hl, #_bgX
	ld	a, (hl)
	add	a, e
	ld	(hl+), a
	ld	a, (hl)
	adc	a, d
	ld	(hl), a
;main.c:220: playerX = limitedPlayerX;
	ld	hl, #_playerX
	ld	a, c
	ld	(hl+), a
;main.c:221: playerDrawX=playerX >> 5;
	ld	a, b
	ld	(hl-), a
	ld	a, (hl+)
	ld	c, a
	ld	b, (hl)
	srl	b
	rr	c
	srl	b
	rr	c
	srl	b
	rr	c
	srl	b
	rr	c
	srl	b
	rr	c
	ld	hl, #_playerDrawX
	ld	(hl), c
	jr	00112$
00111$:
;main.c:229: xSpeed = 0;
	ld	hl, #_xSpeed
	ld	(hl), #0x00
00112$:
;main.c:237: uint8_t yCollisionPoint = playerDrawY -12; 
	ld	hl, #_playerDrawY
	ld	b, (hl)
	ld	a, b
	add	a, #0xf4
	ld	c, a
;main.c:239: if (ySpeed > 0) {
	ld	hl, #_ySpeed
	ld	e, (hl)
	xor	a, a
	ld	d, a
	sub	a, (hl)
	bit	7, e
	jr	Z, 00233$
	bit	7, d
	jr	NZ, 00234$
	cp	a, a
	jr	00234$
00233$:
	bit	7, d
	jr	Z, 00234$
	scf
00234$:
	jr	NC, 00114$
;main.c:240: yCollisionPoint = playerDrawY - 8; //bottom edge, only half the height, so -8
	ld	a, b
	add	a, #0xf8
	ld	c, a
00114$:
;main.c:242: if (ySpeed < 0) {
	ld	a, (#_ySpeed)
	bit	7, a
	jr	Z, 00116$
;main.c:243: yCollisionPoint = playerDrawY -16; //top edge, 
	ld	a, b
	add	a, #0xf0
	ld	c, a
00116$:
;main.c:247: bgindX = ((playerDrawX -4 + bgX) >> 3)%32;
	ld	a, (#_playerDrawX)
	ld	b, #0x00
	add	a, #0xfc
	ld	e, a
	ld	a, b
	adc	a, #0xff
	ld	d, a
	ld	a, e
	ld	hl, #_bgX
	add	a, (hl)
	inc	hl
	ld	e, a
	ld	a, d
	adc	a, (hl)
	ld	d, a
	sra	d
	rr	e
	sra	d
	rr	e
	sra	d
	rr	e
	push	bc
	ld	hl, #0x0020
	push	hl
	push	de
	call	__modsint
	add	sp, #4
	pop	bc
;main.c:250: bgindY = ((yCollisionPoint + bgY) >> 3)%32; 
	ld	b, #0x00
	ld	a, c
	ld	hl, #_bgY
	add	a, (hl)
	inc	hl
	ld	c, a
	ld	a, b
	adc	a, (hl)
	ld	b, a
	sra	b
	rr	c
	sra	b
	rr	c
	sra	b
	rr	c
	push	de
	ld	hl, #0x0020
	push	hl
	push	bc
	call	__modsint
	add	sp, #4
	ld	l, e
;	spillPairReg hl
;	spillPairReg hl
	pop	de
;main.c:253: ind = 32*bgindY + bgindX;
	ld	h, #0x00
;	spillPairReg hl
;	spillPairReg hl
	add	hl, hl
	add	hl, hl
	add	hl, hl
	add	hl, hl
	add	hl, hl
	add	hl, de
;main.c:254: result = background1[ind] != BLANK[0];
	ld	de, #_background1
	add	hl, de
	ld	c, (hl)
	ld	hl, #_BLANK
	ld	b, (hl)
	ld	a, c
	sub	a, b
	ld	a, #0x01
	jr	Z, 00236$
	xor	a, a
00236$:
	xor	a, #0x01
	ldhl	sp,	#7
	ld	(hl), a
;main.c:255: if (result == 0) {
	ld	a, (hl)
	or	a, a
	jp	NZ, 00121$
;main.c:256: playerY += ySpeed;
	ld	a, (#_ySpeed)
	ld	c, a
	rlca
	sbc	a, a
	ld	b, a
	ld	hl, #_playerY
	ld	l, (hl)
;	spillPairReg hl
;	spillPairReg hl
	ld	a, (_playerY + 1)
	ld	h, a
;	spillPairReg hl
;	spillPairReg hl
	add	hl, bc
	ld	c, l
	ld	b, h
	ld	hl, #_playerY
	ld	a, c
	ld	(hl+), a
;main.c:258: uint16_t limitedPlayerY = u16Clamp(playerY, 61<<5, 107<<5);//0->144, with 16px margin for top & -8 for bottom, 45px for edges
	ld	a, b
	ld	(hl-), a
	ld	de, #0x0d60
	push	de
	ld	de, #0x07a0
	push	de
	ld	a, (hl+)
	ld	e, a
	ld	d, (hl)
	push	de
	call	_u16Clamp
	add	sp, #6
	ldhl	sp,	#2
	ld	a, e
	ld	(hl+), a
	ld	(hl), d
;main.c:260: int16_t yOverflow = (playerY - limitedPlayerY);
	ld	hl, #_playerY
	ld	a, (hl+)
	ld	e, a
	ld	d, (hl)
	ldhl	sp,	#2
	ld	a,	(hl+)
	ld	h, (hl)
	ld	l, a
	ld	a, e
	sub	a, l
	ld	e, a
	ld	a, d
	sbc	a, h
	ldhl	sp,	#1
	ld	(hl-), a
	ld	(hl), e
;main.c:261: if (yOverflow >= 0) {
	pop	bc
	push	bc
	bit	7, b
	jr	NZ, 00118$
;main.c:262: yOverflow = yOverflow >> 5;
	ld	a, (hl)
	ldhl	sp,	#6
	ld	(hl), a
	ldhl	sp,	#1
	ld	a, (hl)
	ldhl	sp,	#7
	ld	(hl), a
	sra	(hl)
	dec	hl
	rr	(hl)
	inc	hl
	sra	(hl)
	dec	hl
	rr	(hl)
	inc	hl
	sra	(hl)
	dec	hl
	rr	(hl)
	inc	hl
	sra	(hl)
	dec	hl
	rr	(hl)
	inc	hl
	sra	(hl)
	dec	hl
	rr	(hl)
	jr	00119$
00118$:
;main.c:265: yOverflow = -((-yOverflow) >> 5);
	ld	de, #0x0000
	pop	hl
	push	hl
	ld	a, e
	sub	a, l
	ld	e, a
	ld	a, d
	sbc	a, h
	ldhl	sp,	#7
	ld	(hl-), a
	ld	(hl), e
	ld	a, (hl-)
	dec	hl
	ld	(hl), a
	ldhl	sp,	#7
	ld	a, (hl-)
	dec	hl
	ld	(hl), a
	sra	(hl)
	dec	hl
	rr	(hl)
	inc	hl
	sra	(hl)
	dec	hl
	rr	(hl)
	inc	hl
	sra	(hl)
	dec	hl
	rr	(hl)
	inc	hl
	sra	(hl)
	dec	hl
	rr	(hl)
	inc	hl
	sra	(hl)
	dec	hl
	rr	(hl)
	ld	de, #0x0000
	ld	a,	(hl+)
	ld	h, (hl)
	ld	l, a
	ld	a, e
	sub	a, l
	ld	e, a
	ld	a, d
	sbc	a, h
	ldhl	sp,	#7
	ld	(hl-), a
	ld	(hl), e
00119$:
;main.c:267: bgY += yOverflow;
	ld	hl, #_bgY
	ld	a, (hl+)
	ld	e, a
	ld	d, (hl)
	ldhl	sp,	#6
	ld	a,	(hl+)
	ld	h, (hl)
	ld	l, a
	add	hl, de
	ld	e, l
	ld	d, h
	ld	hl, #_bgY
	ld	a, e
	ld	(hl+), a
	ld	(hl), d
;main.c:268: playerY = limitedPlayerY;
	ldhl	sp,	#2
	ld	a, (hl)
	ld	(#_playerY),a
	ldhl	sp,	#3
	ld	a, (hl)
	ld	hl, #_playerY + 1
;main.c:269: playerDrawY=playerY >> 5;
	ld	(hl-), a
	ld	a, (hl+)
	ld	c, a
	ld	b, (hl)
	srl	b
	rr	c
	srl	b
	rr	c
	srl	b
	rr	c
	srl	b
	rr	c
	srl	b
	rr	c
	ld	hl, #_playerDrawY
	ld	(hl), c
	jr	00122$
00121$:
;main.c:274: ySpeed = 0;
	ld	hl, #_ySpeed
	ld	(hl), #0x00
00122$:
;main.c:278: move_sprite(0, playerDrawX, playerDrawY);
	ld	hl, #_playerDrawY
	ld	c, (hl)
	ld	hl, #_playerDrawX
	ld	b, (hl)
;/home/milan/Documents/gameboy/gbdk/include/gb/gb.h:1520: OAM_item_t * itm = &shadow_OAM[nb];
	ld	hl, #_shadow_OAM
;/home/milan/Documents/gameboy/gbdk/include/gb/gb.h:1521: itm->y=y, itm->x=x;
	ld	a, c
	ld	(hl+), a
	ld	(hl), b
;main.c:281: if (bgX >= 256) {
	ld	hl, #_bgX
	ld	a, (hl+)
	ld	c, a
	ld	b, (hl)
	ld	a, b
	xor	a, #0x80
	sub	a, #0x81
	jr	C, 00124$
;main.c:282: bgX = bgX % 256;
	xor	a, a
	inc	a
	push	af
	push	bc
	call	__modsint
	add	sp, #4
	ld	hl, #_bgX
	ld	a, e
	ld	(hl+), a
	ld	(hl), d
00124$:
;main.c:284: if (bgX < 0) {
	ld	hl, #_bgX
	ld	a, (hl+)
	ld	c, a
	ld	b, (hl)
	bit	7, b
	jr	Z, 00126$
;main.c:285: bgX = 255 - (bgX % 256);
	xor	a, a
	inc	a
	push	af
	push	bc
	call	__modsint
	add	sp, #4
	ld	a, #0xff
	sub	a, e
	ld	c, a
	sbc	a, a
	sub	a, d
	ld	hl, #_bgX
	ld	(hl), c
	inc	hl
	ld	(hl), a
00126$:
;main.c:287: if (bgY >= 256) {
	ld	hl, #_bgY
	ld	a, (hl+)
	ld	c, a
	ld	b, (hl)
	ld	a, b
	xor	a, #0x80
	sub	a, #0x81
	jr	C, 00128$
;main.c:288: bgY = bgY % 256;
	xor	a, a
	inc	a
	push	af
	push	bc
	call	__modsint
	add	sp, #4
	ld	hl, #_bgY
	ld	a, e
	ld	(hl+), a
	ld	(hl), d
00128$:
;main.c:290: if (bgY < 0) {
	ld	hl, #_bgY
	ld	a, (hl+)
	ld	c, a
	ld	b, (hl)
	bit	7, b
	jr	Z, 00130$
;main.c:291: bgY = 255 - (bgY % 256);
	xor	a, a
	inc	a
	push	af
	push	bc
	call	__modsint
	add	sp, #4
	ld	a, #0xff
	sub	a, e
	ld	c, a
	sbc	a, a
	sub	a, d
	ld	hl, #_bgY
	ld	(hl), c
	inc	hl
	ld	(hl), a
00130$:
;main.c:294: move_bkg(bgX, bgY);
	ld	hl, #_bgY
	ld	c, (hl)
	ld	a, (#_bgX)
	ldh	(_SCX_REG + 0), a
;/home/milan/Documents/gameboy/gbdk/include/gb/gb.h:1080: SCX_REG=x, SCY_REG=y;
	ld	a, c
	ldh	(_SCY_REG + 0), a
;main.c:301: if (ySpeed > 0) ySpeed--;
	ld	hl, #_ySpeed
	ld	e, (hl)
	xor	a, a
	ld	d, a
	sub	a, (hl)
	bit	7, e
	jr	Z, 00237$
	bit	7, d
	jr	NZ, 00238$
	cp	a, a
	jr	00238$
00237$:
	bit	7, d
	jr	Z, 00238$
	scf
00238$:
	jr	NC, 00132$
	ld	hl, #_ySpeed
	dec	(hl)
00132$:
;main.c:302: if (ySpeed < 0) ySpeed++;
	ld	hl, #_ySpeed
	bit	7, (hl)
	jr	Z, 00134$
	inc	(hl)
00134$:
;main.c:303: if (xSpeed > 0) xSpeed--;
	ld	hl, #_xSpeed
	ld	e, (hl)
	xor	a, a
	ld	d, a
	sub	a, (hl)
	bit	7, e
	jr	Z, 00239$
	bit	7, d
	jr	NZ, 00240$
	cp	a, a
	jr	00240$
00239$:
	bit	7, d
	jr	Z, 00240$
	scf
00240$:
	jr	NC, 00136$
	ld	hl, #_xSpeed
	dec	(hl)
00136$:
;main.c:304: if (xSpeed < 0) xSpeed++;
	ld	hl, #_xSpeed
	bit	7, (hl)
	jr	Z, 00141$
	inc	(hl)
00141$:
;main.c:308: }
	add	sp, #8
	ret
;main.c:310: void checkCollision() {
;	---------------------------------
; Function checkCollision
; ---------------------------------
_checkCollision::
;main.c:312: }
	ret
;main.c:315: void init() {
;	---------------------------------
; Function init
; ---------------------------------
_init::
;main.c:318: xDir = 0;
	ld	hl, #_xDir
	ld	(hl), #0x00
;main.c:319: yDir = 0;
	ld	hl, #_yDir
	ld	(hl), #0x00
;main.c:320: xSpeed = 0;
	ld	hl, #_xSpeed
	ld	(hl), #0x00
;main.c:321: ySpeed = 0;
	ld	hl, #_ySpeed
	ld	(hl), #0x00
;main.c:324: playerX = 80<<5;
	ld	hl, #_playerX
	ld	(hl), #0x00
	inc	hl
	ld	(hl), #0x0a
;main.c:325: playerY = 80<<5;
	ld	hl, #_playerY
	ld	(hl), #0x00
	inc	hl
	ld	(hl), #0x0a
;main.c:327: playerDrawX = 80;
	ld	hl, #_playerDrawX
	ld	(hl), #0x50
;main.c:328: playerDrawY = 80;
	ld	hl, #_playerDrawY
	ld	(hl), #0x50
;main.c:331: bgX = 0;
	xor	a, a
	ld	hl, #_bgX
	ld	(hl+), a
	ld	(hl), a
;main.c:332: bgY = 0;
	xor	a, a
	ld	hl, #_bgY
	ld	(hl+), a
	ld	(hl), a
;main.c:334: hull = maxHull;
	ld	a, (#_maxHull)
	ld	(#_hull),a
;main.c:335: shield = maxShield;
	ld	a, (#_maxShield)
	ld	(#_shield),a
;main.c:337: DISPLAY_ON;
	ldh	a, (_LCDC_REG + 0)
	or	a, #0x80
	ldh	(_LCDC_REG + 0), a
;main.c:338: SPRITES_8x8;
	ldh	a, (_LCDC_REG + 0)
	and	a, #0xfb
	ldh	(_LCDC_REG + 0), a
;main.c:339: set_sprite_data(0, 8, cross);
	ld	de, #_cross
	push	de
	ld	hl, #0x800
	push	hl
	call	_set_sprite_data
	add	sp, #4
;/home/milan/Documents/gameboy/gbdk/include/gb/gb.h:1447: shadow_OAM[nb].tile=tile;
	ld	hl, #(_shadow_OAM + 2)
	ld	(hl), #0x00
;main.c:342: SHOW_SPRITES;
	ldh	a, (_LCDC_REG + 0)
	or	a, #0x02
	ldh	(_LCDC_REG + 0), a
;main.c:346: font_init();
	call	_font_init
;main.c:347: min_font = font_load(font_min); // 36 tiles of characters
	ld	de, #_font_min
	push	de
	call	_font_load
	pop	hl
	ld	hl, #_min_font
	ld	a, e
	ld	(hl+), a
;main.c:348: font_set(min_font);
	ld	a, d
	ld	(hl-), a
	ld	a, (hl+)
	ld	e, a
	ld	d, (hl)
	push	de
	call	_font_set
	pop	hl
;main.c:349: set_win_tiles(1,0,4,1,hullabel);
	ld	de, #_hullabel
	push	de
	ld	hl, #0x104
	push	hl
	ld	hl, #0x01
	push	hl
	call	_set_win_tiles
	add	sp, #6
;main.c:350: set_win_tiles(1,1,5,1,shieldlabel);
	ld	de, #_shieldlabel
	push	de
	ld	hl, #0x105
	push	hl
	ld	hl, #0x101
	push	hl
	call	_set_win_tiles
	add	sp, #6
;main.c:355: set_bkg_data(0x50,1,healthblock);
	ld	de, #_healthblock
	push	de
	ld	hl, #0x150
	push	hl
	call	_set_bkg_data
	add	sp, #4
;main.c:357: setHealthBar(0, hull);
	ld	a, (#_hull)
	ld	h, a
	ld	l, #0x00
	push	hl
	call	_setHealthBar
	pop	hl
;main.c:358: setHealthBar(1, shield);
	ld	a, (#_shield)
	ld	h, a
	ld	l, #0x01
	push	hl
	call	_setHealthBar
	pop	hl
;/home/milan/Documents/gameboy/gbdk/include/gb/gb.h:1316: WX_REG=x, WY_REG=y;
	ld	a, #0x07
	ldh	(_WX_REG + 0), a
	ld	a, #0x7c
	ldh	(_WY_REG + 0), a
;main.c:365: SHOW_WIN;;
	ldh	a, (_LCDC_REG + 0)
	or	a, #0x20
	ldh	(_LCDC_REG + 0), a
;main.c:370: set_bkg_data(0x25, 6, backgroundtiles);		// load background tileset (start in vram, count, tilestruct)
	ld	de, #_backgroundtiles
	push	de
	ld	hl, #0x625
	push	hl
	call	_set_bkg_data
	add	sp, #4
;main.c:371: set_bkg_tiles(0,0,background1Width, background1Height ,background1); //set tilemap to be a background
	ld	de, #_background1
	push	de
	ld	hl, #0x2020
	push	hl
	xor	a, a
	rrca
	push	af
	call	_set_bkg_tiles
	add	sp, #6
;/home/milan/Documents/gameboy/gbdk/include/gb/gb.h:1080: SCX_REG=x, SCY_REG=y;
	xor	a, a
	ldh	(_SCX_REG + 0), a
	xor	a, a
	ldh	(_SCY_REG + 0), a
;main.c:373: SHOW_BKG;
	ldh	a, (_LCDC_REG + 0)
	or	a, #0x01
	ldh	(_LCDC_REG + 0), a
;main.c:375: }
	ret
;main.c:377: void main(){
;	---------------------------------
; Function main
; ---------------------------------
_main::
;main.c:379: STAT_REG = 0x45;
	ld	a, #0x45
	ldh	(_STAT_REG + 0), a
;main.c:380: LYC_REG = 0x0e;//0x08;  //  Fire LCD Interupt on the 8th scan line (just first row)
	ld	a, #0x0e
	ldh	(_LYC_REG + 0), a
;/home/milan/Documents/gameboy/gbdk/include/gb/gb.h:671: __asm__("di");
	di
;main.c:382: add_LCD(interruptLCD);
	ld	de, #_interruptLCD
	push	de
	call	_add_LCD
	inc	sp
	inc	sp
;/home/milan/Documents/gameboy/gbdk/include/gb/gb.h:655: __asm__("ei");
	ei
;main.c:384: set_interrupts(VBL_IFLAG | LCD_IFLAG);   
	ld	a, #0x03
	push	af
	inc	sp
	call	_set_interrupts
	inc	sp
;main.c:388: init();
	call	_init
;main.c:390: while(1) {
00102$:
;main.c:391: joydata = joypad(); // query for button states
	call	_joypad
	ld	hl, #_joydata
	ld	(hl), e
;main.c:393: updateDirection(); // set player direction
	call	_updateDirection
;main.c:394: move(); //move player, also takes damage in case of sudden stop against background elements
	call	_move
;main.c:396: checkCollision(); //todo check for collisions with other sprites
	call	_checkCollision
;main.c:397: SHOW_WIN;	
	ldh	a, (_LCDC_REG + 0)
	or	a, #0x20
	ldh	(_LCDC_REG + 0), a
;main.c:398: wait_vbl_done(); // Idle until next frame
	call	_wait_vbl_done
;main.c:403: }
	jr	00102$
	.area _CODE
	.area _INITIALIZER
__xinit__hullabel:
	.db #0x12	; 18
	.db #0x1f	; 31
	.db #0x16	; 22
	.db #0x16	; 22
__xinit__shieldlabel:
	.db #0x1d	; 29
	.db #0x12	; 18
	.db #0x16	; 22
	.db #0x0e	; 14
__xinit__xDir:
	.db #0x00	;  0
__xinit__yDir:
	.db #0x00	;  0
__xinit__xSpeed:
	.db #0x00	;  0
__xinit__ySpeed:
	.db #0x00	;  0
__xinit__playerX:
	.dw #0x0a00
__xinit__playerY:
	.dw #0x0a00
__xinit__playerDrawX:
	.db #0x50	; 80	'P'
__xinit__playerDrawY:
	.db #0x50	; 80	'P'
__xinit__bgX:
	.dw #0x0000
__xinit__bgY:
	.dw #0x0000
__xinit__maxHull:
	.db #0x64	;  100	'd'
__xinit__maxShield:
	.db #0x64	;  100	'd'
	.area _CABS (ABS)
