;--------------------------------------------------------
; File Created by SDCC : free open source ANSI-C Compiler
; Version 4.1.6 #12539 (Linux)
;--------------------------------------------------------
	.module main
	.optsdcc -mgbz80
	
;--------------------------------------------------------
; Public variables in this module
;--------------------------------------------------------
	.globl _main
	.globl _initGame
	.globl _initProjectiles
	.globl _moveProjectiles
	.globl _fire
	.globl _checkCollision
	.globl _takeDamage
	.globl _move
	.globl _initEnemies
	.globl _updateEnemyPositions
	.globl _updateDirection
	.globl _setHealthBar
	.globl _interruptLCD
	.globl _rand
	.globl _initrand
	.globl _font_set
	.globl _font_load
	.globl _font_init
	.globl _printf
	.globl _set_sprite_data
	.globl _set_win_tiles
	.globl _set_bkg_tiles
	.globl _set_bkg_data
	.globl _wait_vbl_done
	.globl _waitpad
	.globl _joypad
	.globl _enemyCollisionCount
	.globl _yOverflow
	.globl _xOverflow
	.globl _bgY
	.globl _bgX
	.globl _playerDrawY
	.globl _playerDrawX
	.globl _playerY
	.globl _playerX
	.globl _ySpeed
	.globl _xSpeed
	.globl _yDir
	.globl _xDir
	.globl _fireCooldown
	.globl _oldestProjectile
	.globl _doubleGun
	.globl _singleGun
	.globl _blob
	.globl _shieldlabel
	.globl _hullabel
	.globl _min_font
	.globl _shield
	.globl _hull
	.globl _joydata
	.globl _projectiles
	.globl _enemies
	.globl _maxShield
	.globl _maxHull
	.globl _PLAYERSIZE
	.globl _PROJECTILECOUNT
	.globl _ySpawnPositions
	.globl _xSpawnPositions
	.globl _ENEMYCOUNT
	.globl _EMPTYSPRITE
	.globl _BLANK
	.globl _ProjectileTiles
	.globl _projectile1
	.globl _enemy1
	.globl _healthblock
	.globl _backgroundtiles
	.globl _background1
	.globl _cross
;--------------------------------------------------------
; special function registers
;--------------------------------------------------------
;--------------------------------------------------------
; ram data
;--------------------------------------------------------
	.area _DATA
_enemies::
	.ds 80
_projectiles::
	.ds 55
_joydata::
	.ds 1
_hull::
	.ds 1
_shield::
	.ds 1
_min_font::
	.ds 2
;--------------------------------------------------------
; ram data
;--------------------------------------------------------
	.area _INITIALIZED
_hullabel::
	.ds 4
_shieldlabel::
	.ds 4
_blob::
	.ds 16
_singleGun::
	.ds 11
_doubleGun::
	.ds 11
_oldestProjectile::
	.ds 1
_fireCooldown::
	.ds 1
_xDir::
	.ds 1
_yDir::
	.ds 1
_xSpeed::
	.ds 1
_ySpeed::
	.ds 1
_playerX::
	.ds 2
_playerY::
	.ds 2
_playerDrawX::
	.ds 1
_playerDrawY::
	.ds 1
_bgX::
	.ds 2
_bgY::
	.ds 2
_xOverflow::
	.ds 2
_yOverflow::
	.ds 2
_enemyCollisionCount::
	.ds 1
;--------------------------------------------------------
; absolute external ram data
;--------------------------------------------------------
	.area _DABS (ABS)
;--------------------------------------------------------
; global & static initialisations
;--------------------------------------------------------
	.area _HOME
	.area _GSINIT
	.area _GSFINAL
	.area _GSINIT
;--------------------------------------------------------
; Home
;--------------------------------------------------------
	.area _HOME
	.area _HOME
;--------------------------------------------------------
; code
;--------------------------------------------------------
	.area _CODE
;main.c:82: void interruptLCD(){
;	---------------------------------
; Function interruptLCD
; ---------------------------------
_interruptLCD::
;main.c:83: HIDE_WIN;
	ldh	a, (_LCDC_REG + 0)
	and	a, #0xdf
	ldh	(_LCDC_REG + 0), a
;main.c:84: }
	ret
_cross:
	.db #0x18	; 24
	.db #0x18	; 24
	.db #0x18	; 24
	.db #0x18	; 24
	.db #0x3c	; 60
	.db #0x3c	; 60
	.db #0x3c	; 60
	.db #0x3c	; 60
	.db #0x7e	; 126
	.db #0x7e	; 126
	.db #0x7e	; 126
	.db #0x7e	; 126
	.db #0xff	; 255
	.db #0xff	; 255
	.db #0xff	; 255
	.db #0xff	; 255
	.db #0x0f	; 15
	.db #0x0f	; 15
	.db #0x3f	; 63
	.db #0x3f	; 63
	.db #0xff	; 255
	.db #0xff	; 255
	.db #0xff	; 255
	.db #0xff	; 255
	.db #0x7e	; 126
	.db #0x7e	; 126
	.db #0x3e	; 62
	.db #0x3e	; 62
	.db #0x1c	; 28
	.db #0x1c	; 28
	.db #0x0c	; 12
	.db #0x0c	; 12
	.db #0xc0	; 192
	.db #0xc0	; 192
	.db #0xf0	; 240
	.db #0xf0	; 240
	.db #0xfc	; 252
	.db #0xfc	; 252
	.db #0xff	; 255
	.db #0xff	; 255
	.db #0xff	; 255
	.db #0xff	; 255
	.db #0xfc	; 252
	.db #0xfc	; 252
	.db #0xf0	; 240
	.db #0xf0	; 240
	.db #0xc0	; 192
	.db #0xc0	; 192
	.db #0x0c	; 12
	.db #0x0c	; 12
	.db #0x1c	; 28
	.db #0x1c	; 28
	.db #0x3e	; 62
	.db #0x3e	; 62
	.db #0x7e	; 126
	.db #0x7e	; 126
	.db #0xff	; 255
	.db #0xff	; 255
	.db #0xff	; 255
	.db #0xff	; 255
	.db #0x3f	; 63
	.db #0x3f	; 63
	.db #0x0f	; 15
	.db #0x0f	; 15
	.db #0xff	; 255
	.db #0xff	; 255
	.db #0xff	; 255
	.db #0xff	; 255
	.db #0x7e	; 126
	.db #0x7e	; 126
	.db #0x7e	; 126
	.db #0x7e	; 126
	.db #0x3c	; 60
	.db #0x3c	; 60
	.db #0x3c	; 60
	.db #0x3c	; 60
	.db #0x18	; 24
	.db #0x18	; 24
	.db #0x18	; 24
	.db #0x18	; 24
	.db #0x30	; 48	'0'
	.db #0x30	; 48	'0'
	.db #0x38	; 56	'8'
	.db #0x38	; 56	'8'
	.db #0x7c	; 124
	.db #0x7c	; 124
	.db #0x7e	; 126
	.db #0x7e	; 126
	.db #0xff	; 255
	.db #0xff	; 255
	.db #0xff	; 255
	.db #0xff	; 255
	.db #0xfc	; 252
	.db #0xfc	; 252
	.db #0xf0	; 240
	.db #0xf0	; 240
	.db #0x03	; 3
	.db #0x03	; 3
	.db #0x0f	; 15
	.db #0x0f	; 15
	.db #0x3f	; 63
	.db #0x3f	; 63
	.db #0xff	; 255
	.db #0xff	; 255
	.db #0xff	; 255
	.db #0xff	; 255
	.db #0x3f	; 63
	.db #0x3f	; 63
	.db #0x0f	; 15
	.db #0x0f	; 15
	.db #0x03	; 3
	.db #0x03	; 3
	.db #0xf0	; 240
	.db #0xf0	; 240
	.db #0xfc	; 252
	.db #0xfc	; 252
	.db #0xff	; 255
	.db #0xff	; 255
	.db #0xff	; 255
	.db #0xff	; 255
	.db #0x7e	; 126
	.db #0x7e	; 126
	.db #0x7c	; 124
	.db #0x7c	; 124
	.db #0x38	; 56	'8'
	.db #0x38	; 56	'8'
	.db #0x30	; 48	'0'
	.db #0x30	; 48	'0'
_background1:
	.db #0x26	; 38
	.db #0x26	; 38
	.db #0x26	; 38
	.db #0x26	; 38
	.db #0x26	; 38
	.db #0x26	; 38
	.db #0x26	; 38
	.db #0x26	; 38
	.db #0x26	; 38
	.db #0x26	; 38
	.db #0x26	; 38
	.db #0x2a	; 42
	.db #0x29	; 41
	.db #0x26	; 38
	.db #0x26	; 38
	.db #0x26	; 38
	.db #0x26	; 38
	.db #0x26	; 38
	.db #0x26	; 38
	.db #0x26	; 38
	.db #0x26	; 38
	.db #0x26	; 38
	.db #0x26	; 38
	.db #0x26	; 38
	.db #0x26	; 38
	.db #0x26	; 38
	.db #0x26	; 38
	.db #0x26	; 38
	.db #0x26	; 38
	.db #0x26	; 38
	.db #0x26	; 38
	.db #0x26	; 38
	.db #0x26	; 38
	.db #0x26	; 38
	.db #0x26	; 38
	.db #0x26	; 38
	.db #0x26	; 38
	.db #0x26	; 38
	.db #0x26	; 38
	.db #0x26	; 38
	.db #0x26	; 38
	.db #0x26	; 38
	.db #0x26	; 38
	.db #0x25	; 37
	.db #0x26	; 38
	.db #0x26	; 38
	.db #0x26	; 38
	.db #0x26	; 38
	.db #0x26	; 38
	.db #0x26	; 38
	.db #0x26	; 38
	.db #0x26	; 38
	.db #0x26	; 38
	.db #0x26	; 38
	.db #0x26	; 38
	.db #0x26	; 38
	.db #0x26	; 38
	.db #0x26	; 38
	.db #0x26	; 38
	.db #0x26	; 38
	.db #0x26	; 38
	.db #0x26	; 38
	.db #0x26	; 38
	.db #0x26	; 38
	.db #0x26	; 38
	.db #0x26	; 38
	.db #0x26	; 38
	.db #0x26	; 38
	.db #0x26	; 38
	.db #0x26	; 38
	.db #0x26	; 38
	.db #0x26	; 38
	.db #0x26	; 38
	.db #0x26	; 38
	.db #0x26	; 38
	.db #0x26	; 38
	.db #0x26	; 38
	.db #0x26	; 38
	.db #0x26	; 38
	.db #0x26	; 38
	.db #0x26	; 38
	.db #0x26	; 38
	.db #0x26	; 38
	.db #0x26	; 38
	.db #0x26	; 38
	.db #0x26	; 38
	.db #0x26	; 38
	.db #0x26	; 38
	.db #0x26	; 38
	.db #0x26	; 38
	.db #0x26	; 38
	.db #0x26	; 38
	.db #0x26	; 38
	.db #0x26	; 38
	.db #0x26	; 38
	.db #0x26	; 38
	.db #0x26	; 38
	.db #0x26	; 38
	.db #0x26	; 38
	.db #0x26	; 38
	.db #0x26	; 38
	.db #0x26	; 38
	.db #0x26	; 38
	.db #0x26	; 38
	.db #0x26	; 38
	.db #0x26	; 38
	.db #0x26	; 38
	.db #0x26	; 38
	.db #0x26	; 38
	.db #0x26	; 38
	.db #0x26	; 38
	.db #0x26	; 38
	.db #0x26	; 38
	.db #0x26	; 38
	.db #0x26	; 38
	.db #0x26	; 38
	.db #0x26	; 38
	.db #0x26	; 38
	.db #0x26	; 38
	.db #0x26	; 38
	.db #0x26	; 38
	.db #0x26	; 38
	.db #0x26	; 38
	.db #0x26	; 38
	.db #0x26	; 38
	.db #0x26	; 38
	.db #0x26	; 38
	.db #0x26	; 38
	.db #0x26	; 38
	.db #0x26	; 38
	.db #0x26	; 38
	.db #0x26	; 38
	.db #0x26	; 38
	.db #0x26	; 38
	.db #0x26	; 38
	.db #0x26	; 38
	.db #0x26	; 38
	.db #0x26	; 38
	.db #0x26	; 38
	.db #0x26	; 38
	.db #0x26	; 38
	.db #0x26	; 38
	.db #0x26	; 38
	.db #0x26	; 38
	.db #0x26	; 38
	.db #0x26	; 38
	.db #0x26	; 38
	.db #0x26	; 38
	.db #0x26	; 38
	.db #0x26	; 38
	.db #0x26	; 38
	.db #0x26	; 38
	.db #0x26	; 38
	.db #0x26	; 38
	.db #0x26	; 38
	.db #0x26	; 38
	.db #0x26	; 38
	.db #0x26	; 38
	.db #0x26	; 38
	.db #0x26	; 38
	.db #0x26	; 38
	.db #0x26	; 38
	.db #0x26	; 38
	.db #0x26	; 38
	.db #0x26	; 38
	.db #0x26	; 38
	.db #0x26	; 38
	.db #0x26	; 38
	.db #0x26	; 38
	.db #0x26	; 38
	.db #0x26	; 38
	.db #0x26	; 38
	.db #0x26	; 38
	.db #0x26	; 38
	.db #0x26	; 38
	.db #0x26	; 38
	.db #0x26	; 38
	.db #0x26	; 38
	.db #0x26	; 38
	.db #0x26	; 38
	.db #0x26	; 38
	.db #0x26	; 38
	.db #0x26	; 38
	.db #0x26	; 38
	.db #0x26	; 38
	.db #0x26	; 38
	.db #0x26	; 38
	.db #0x26	; 38
	.db #0x26	; 38
	.db #0x26	; 38
	.db #0x26	; 38
	.db #0x26	; 38
	.db #0x26	; 38
	.db #0x26	; 38
	.db #0x26	; 38
	.db #0x26	; 38
	.db #0x26	; 38
	.db #0x26	; 38
	.db #0x26	; 38
	.db #0x26	; 38
	.db #0x26	; 38
	.db #0x26	; 38
	.db #0x26	; 38
	.db #0x26	; 38
	.db #0x26	; 38
	.db #0x26	; 38
	.db #0x26	; 38
	.db #0x26	; 38
	.db #0x26	; 38
	.db #0x26	; 38
	.db #0x26	; 38
	.db #0x26	; 38
	.db #0x26	; 38
	.db #0x26	; 38
	.db #0x26	; 38
	.db #0x26	; 38
	.db #0x26	; 38
	.db #0x26	; 38
	.db #0x26	; 38
	.db #0x26	; 38
	.db #0x26	; 38
	.db #0x26	; 38
	.db #0x26	; 38
	.db #0x26	; 38
	.db #0x26	; 38
	.db #0x26	; 38
	.db #0x26	; 38
	.db #0x26	; 38
	.db #0x26	; 38
	.db #0x26	; 38
	.db #0x26	; 38
	.db #0x26	; 38
	.db #0x26	; 38
	.db #0x26	; 38
	.db #0x26	; 38
	.db #0x26	; 38
	.db #0x26	; 38
	.db #0x26	; 38
	.db #0x26	; 38
	.db #0x26	; 38
	.db #0x26	; 38
	.db #0x26	; 38
	.db #0x26	; 38
	.db #0x26	; 38
	.db #0x26	; 38
	.db #0x26	; 38
	.db #0x26	; 38
	.db #0x26	; 38
	.db #0x26	; 38
	.db #0x26	; 38
	.db #0x26	; 38
	.db #0x26	; 38
	.db #0x26	; 38
	.db #0x26	; 38
	.db #0x26	; 38
	.db #0x26	; 38
	.db #0x26	; 38
	.db #0x26	; 38
	.db #0x26	; 38
	.db #0x26	; 38
	.db #0x26	; 38
	.db #0x26	; 38
	.db #0x26	; 38
	.db #0x26	; 38
	.db #0x26	; 38
	.db #0x26	; 38
	.db #0x26	; 38
	.db #0x26	; 38
	.db #0x26	; 38
	.db #0x26	; 38
	.db #0x26	; 38
	.db #0x26	; 38
	.db #0x26	; 38
	.db #0x26	; 38
	.db #0x26	; 38
	.db #0x26	; 38
	.db #0x26	; 38
	.db #0x26	; 38
	.db #0x26	; 38
	.db #0x26	; 38
	.db #0x26	; 38
	.db #0x26	; 38
	.db #0x26	; 38
	.db #0x26	; 38
	.db #0x26	; 38
	.db #0x26	; 38
	.db #0x26	; 38
	.db #0x26	; 38
	.db #0x26	; 38
	.db #0x26	; 38
	.db #0x26	; 38
	.db #0x26	; 38
	.db #0x26	; 38
	.db #0x26	; 38
	.db #0x26	; 38
	.db #0x26	; 38
	.db #0x26	; 38
	.db #0x26	; 38
	.db #0x26	; 38
	.db #0x26	; 38
	.db #0x26	; 38
	.db #0x26	; 38
	.db #0x26	; 38
	.db #0x26	; 38
	.db #0x26	; 38
	.db #0x26	; 38
	.db #0x26	; 38
	.db #0x25	; 37
	.db #0x26	; 38
	.db #0x26	; 38
	.db #0x26	; 38
	.db #0x26	; 38
	.db #0x26	; 38
	.db #0x26	; 38
	.db #0x26	; 38
	.db #0x26	; 38
	.db #0x26	; 38
	.db #0x26	; 38
	.db #0x26	; 38
	.db #0x26	; 38
	.db #0x26	; 38
	.db #0x26	; 38
	.db #0x26	; 38
	.db #0x26	; 38
	.db #0x26	; 38
	.db #0x26	; 38
	.db #0x26	; 38
	.db #0x26	; 38
	.db #0x26	; 38
	.db #0x26	; 38
	.db #0x26	; 38
	.db #0x26	; 38
	.db #0x26	; 38
	.db #0x26	; 38
	.db #0x26	; 38
	.db #0x26	; 38
	.db #0x26	; 38
	.db #0x26	; 38
	.db #0x26	; 38
	.db #0x27	; 39
	.db #0x28	; 40
	.db #0x26	; 38
	.db #0x26	; 38
	.db #0x26	; 38
	.db #0x26	; 38
	.db #0x26	; 38
	.db #0x26	; 38
	.db #0x26	; 38
	.db #0x26	; 38
	.db #0x26	; 38
	.db #0x26	; 38
	.db #0x26	; 38
	.db #0x26	; 38
	.db #0x26	; 38
	.db #0x26	; 38
	.db #0x26	; 38
	.db #0x26	; 38
	.db #0x26	; 38
	.db #0x26	; 38
	.db #0x25	; 37
	.db #0x26	; 38
	.db #0x26	; 38
	.db #0x26	; 38
	.db #0x26	; 38
	.db #0x26	; 38
	.db #0x26	; 38
	.db #0x26	; 38
	.db #0x26	; 38
	.db #0x26	; 38
	.db #0x26	; 38
	.db #0x26	; 38
	.db #0x2a	; 42
	.db #0x29	; 41
	.db #0x26	; 38
	.db #0x26	; 38
	.db #0x26	; 38
	.db #0x26	; 38
	.db #0x26	; 38
	.db #0x26	; 38
	.db #0x26	; 38
	.db #0x26	; 38
	.db #0x26	; 38
	.db #0x26	; 38
	.db #0x26	; 38
	.db #0x26	; 38
	.db #0x26	; 38
	.db #0x26	; 38
	.db #0x26	; 38
	.db #0x26	; 38
	.db #0x26	; 38
	.db #0x26	; 38
	.db #0x27	; 39
	.db #0x28	; 40
	.db #0x26	; 38
	.db #0x26	; 38
	.db #0x26	; 38
	.db #0x26	; 38
	.db #0x26	; 38
	.db #0x26	; 38
	.db #0x26	; 38
	.db #0x26	; 38
	.db #0x26	; 38
	.db #0x26	; 38
	.db #0x26	; 38
	.db #0x26	; 38
	.db #0x26	; 38
	.db #0x26	; 38
	.db #0x26	; 38
	.db #0x26	; 38
	.db #0x26	; 38
	.db #0x26	; 38
	.db #0x26	; 38
	.db #0x26	; 38
	.db #0x26	; 38
	.db #0x26	; 38
	.db #0x26	; 38
	.db #0x26	; 38
	.db #0x26	; 38
	.db #0x26	; 38
	.db #0x26	; 38
	.db #0x26	; 38
	.db #0x26	; 38
	.db #0x26	; 38
	.db #0x2a	; 42
	.db #0x29	; 41
	.db #0x26	; 38
	.db #0x26	; 38
	.db #0x26	; 38
	.db #0x26	; 38
	.db #0x26	; 38
	.db #0x26	; 38
	.db #0x26	; 38
	.db #0x26	; 38
	.db #0x26	; 38
	.db #0x26	; 38
	.db #0x26	; 38
	.db #0x26	; 38
	.db #0x26	; 38
	.db #0x26	; 38
	.db #0x26	; 38
	.db #0x26	; 38
	.db #0x26	; 38
	.db #0x26	; 38
	.db #0x26	; 38
	.db #0x26	; 38
	.db #0x26	; 38
	.db #0x26	; 38
	.db #0x26	; 38
	.db #0x26	; 38
	.db #0x26	; 38
	.db #0x26	; 38
	.db #0x26	; 38
	.db #0x26	; 38
	.db #0x26	; 38
	.db #0x26	; 38
	.db #0x26	; 38
	.db #0x26	; 38
	.db #0x26	; 38
	.db #0x26	; 38
	.db #0x26	; 38
	.db #0x26	; 38
	.db #0x26	; 38
	.db #0x26	; 38
	.db #0x26	; 38
	.db #0x26	; 38
	.db #0x26	; 38
	.db #0x26	; 38
	.db #0x26	; 38
	.db #0x26	; 38
	.db #0x26	; 38
	.db #0x26	; 38
	.db #0x26	; 38
	.db #0x26	; 38
	.db #0x26	; 38
	.db #0x26	; 38
	.db #0x26	; 38
	.db #0x26	; 38
	.db #0x26	; 38
	.db #0x26	; 38
	.db #0x26	; 38
	.db #0x26	; 38
	.db #0x26	; 38
	.db #0x26	; 38
	.db #0x26	; 38
	.db #0x26	; 38
	.db #0x26	; 38
	.db #0x26	; 38
	.db #0x26	; 38
	.db #0x26	; 38
	.db #0x26	; 38
	.db #0x26	; 38
	.db #0x26	; 38
	.db #0x26	; 38
	.db #0x26	; 38
	.db #0x26	; 38
	.db #0x26	; 38
	.db #0x26	; 38
	.db #0x26	; 38
	.db #0x26	; 38
	.db #0x26	; 38
	.db #0x26	; 38
	.db #0x26	; 38
	.db #0x26	; 38
	.db #0x26	; 38
	.db #0x26	; 38
	.db #0x26	; 38
	.db #0x26	; 38
	.db #0x26	; 38
	.db #0x26	; 38
	.db #0x26	; 38
	.db #0x26	; 38
	.db #0x26	; 38
	.db #0x25	; 37
	.db #0x26	; 38
	.db #0x26	; 38
	.db #0x26	; 38
	.db #0x26	; 38
	.db #0x26	; 38
	.db #0x26	; 38
	.db #0x26	; 38
	.db #0x26	; 38
	.db #0x26	; 38
	.db #0x26	; 38
	.db #0x26	; 38
	.db #0x26	; 38
	.db #0x26	; 38
	.db #0x26	; 38
	.db #0x26	; 38
	.db #0x26	; 38
	.db #0x26	; 38
	.db #0x26	; 38
	.db #0x26	; 38
	.db #0x26	; 38
	.db #0x26	; 38
	.db #0x26	; 38
	.db #0x26	; 38
	.db #0x26	; 38
	.db #0x26	; 38
	.db #0x26	; 38
	.db #0x26	; 38
	.db #0x26	; 38
	.db #0x26	; 38
	.db #0x26	; 38
	.db #0x26	; 38
	.db #0x28	; 40
	.db #0x26	; 38
	.db #0x26	; 38
	.db #0x26	; 38
	.db #0x26	; 38
	.db #0x26	; 38
	.db #0x26	; 38
	.db #0x26	; 38
	.db #0x26	; 38
	.db #0x26	; 38
	.db #0x26	; 38
	.db #0x26	; 38
	.db #0x26	; 38
	.db #0x26	; 38
	.db #0x26	; 38
	.db #0x26	; 38
	.db #0x26	; 38
	.db #0x26	; 38
	.db #0x26	; 38
	.db #0x26	; 38
	.db #0x26	; 38
	.db #0x26	; 38
	.db #0x26	; 38
	.db #0x26	; 38
	.db #0x26	; 38
	.db #0x26	; 38
	.db #0x26	; 38
	.db #0x26	; 38
	.db #0x26	; 38
	.db #0x26	; 38
	.db #0x26	; 38
	.db #0x27	; 39
	.db #0x29	; 41
	.db #0x26	; 38
	.db #0x26	; 38
	.db #0x26	; 38
	.db #0x26	; 38
	.db #0x26	; 38
	.db #0x26	; 38
	.db #0x26	; 38
	.db #0x26	; 38
	.db #0x26	; 38
	.db #0x26	; 38
	.db #0x26	; 38
	.db #0x26	; 38
	.db #0x26	; 38
	.db #0x26	; 38
	.db #0x26	; 38
	.db #0x26	; 38
	.db #0x26	; 38
	.db #0x26	; 38
	.db #0x26	; 38
	.db #0x26	; 38
	.db #0x26	; 38
	.db #0x26	; 38
	.db #0x26	; 38
	.db #0x26	; 38
	.db #0x26	; 38
	.db #0x26	; 38
	.db #0x26	; 38
	.db #0x26	; 38
	.db #0x26	; 38
	.db #0x26	; 38
	.db #0x2a	; 42
	.db #0x26	; 38
	.db #0x26	; 38
	.db #0x26	; 38
	.db #0x26	; 38
	.db #0x26	; 38
	.db #0x26	; 38
	.db #0x26	; 38
	.db #0x26	; 38
	.db #0x26	; 38
	.db #0x26	; 38
	.db #0x26	; 38
	.db #0x26	; 38
	.db #0x26	; 38
	.db #0x26	; 38
	.db #0x26	; 38
	.db #0x26	; 38
	.db #0x26	; 38
	.db #0x26	; 38
	.db #0x26	; 38
	.db #0x26	; 38
	.db #0x26	; 38
	.db #0x26	; 38
	.db #0x26	; 38
	.db #0x26	; 38
	.db #0x26	; 38
	.db #0x26	; 38
	.db #0x26	; 38
	.db #0x26	; 38
	.db #0x26	; 38
	.db #0x26	; 38
	.db #0x26	; 38
	.db #0x26	; 38
	.db #0x26	; 38
	.db #0x26	; 38
	.db #0x26	; 38
	.db #0x26	; 38
	.db #0x26	; 38
	.db #0x26	; 38
	.db #0x26	; 38
	.db #0x26	; 38
	.db #0x26	; 38
	.db #0x26	; 38
	.db #0x26	; 38
	.db #0x26	; 38
	.db #0x26	; 38
	.db #0x26	; 38
	.db #0x26	; 38
	.db #0x26	; 38
	.db #0x26	; 38
	.db #0x26	; 38
	.db #0x26	; 38
	.db #0x26	; 38
	.db #0x26	; 38
	.db #0x26	; 38
	.db #0x26	; 38
	.db #0x26	; 38
	.db #0x26	; 38
	.db #0x26	; 38
	.db #0x26	; 38
	.db #0x26	; 38
	.db #0x26	; 38
	.db #0x26	; 38
	.db #0x26	; 38
	.db #0x26	; 38
	.db #0x26	; 38
	.db #0x26	; 38
	.db #0x26	; 38
	.db #0x26	; 38
	.db #0x26	; 38
	.db #0x26	; 38
	.db #0x26	; 38
	.db #0x26	; 38
	.db #0x26	; 38
	.db #0x26	; 38
	.db #0x26	; 38
	.db #0x26	; 38
	.db #0x26	; 38
	.db #0x26	; 38
	.db #0x26	; 38
	.db #0x26	; 38
	.db #0x26	; 38
	.db #0x26	; 38
	.db #0x26	; 38
	.db #0x26	; 38
	.db #0x26	; 38
	.db #0x26	; 38
	.db #0x26	; 38
	.db #0x26	; 38
	.db #0x26	; 38
	.db #0x26	; 38
	.db #0x26	; 38
	.db #0x26	; 38
	.db #0x26	; 38
	.db #0x26	; 38
	.db #0x26	; 38
	.db #0x26	; 38
	.db #0x26	; 38
	.db #0x26	; 38
	.db #0x26	; 38
	.db #0x26	; 38
	.db #0x26	; 38
	.db #0x26	; 38
	.db #0x26	; 38
	.db #0x26	; 38
	.db #0x26	; 38
	.db #0x26	; 38
	.db #0x26	; 38
	.db #0x26	; 38
	.db #0x26	; 38
	.db #0x26	; 38
	.db #0x26	; 38
	.db #0x26	; 38
	.db #0x26	; 38
	.db #0x26	; 38
	.db #0x26	; 38
	.db #0x26	; 38
	.db #0x26	; 38
	.db #0x26	; 38
	.db #0x26	; 38
	.db #0x26	; 38
	.db #0x26	; 38
	.db #0x26	; 38
	.db #0x26	; 38
	.db #0x26	; 38
	.db #0x26	; 38
	.db #0x26	; 38
	.db #0x26	; 38
	.db #0x26	; 38
	.db #0x26	; 38
	.db #0x26	; 38
	.db #0x26	; 38
	.db #0x26	; 38
	.db #0x26	; 38
	.db #0x26	; 38
	.db #0x26	; 38
	.db #0x26	; 38
	.db #0x26	; 38
	.db #0x26	; 38
	.db #0x26	; 38
	.db #0x26	; 38
	.db #0x26	; 38
	.db #0x26	; 38
	.db #0x26	; 38
	.db #0x26	; 38
	.db #0x26	; 38
	.db #0x25	; 37
	.db #0x26	; 38
	.db #0x26	; 38
	.db #0x26	; 38
	.db #0x26	; 38
	.db #0x26	; 38
	.db #0x26	; 38
	.db #0x26	; 38
	.db #0x26	; 38
	.db #0x26	; 38
	.db #0x26	; 38
	.db #0x26	; 38
	.db #0x26	; 38
	.db #0x26	; 38
	.db #0x26	; 38
	.db #0x26	; 38
	.db #0x26	; 38
	.db #0x26	; 38
	.db #0x26	; 38
	.db #0x26	; 38
	.db #0x26	; 38
	.db #0x26	; 38
	.db #0x26	; 38
	.db #0x26	; 38
	.db #0x26	; 38
	.db #0x26	; 38
	.db #0x26	; 38
	.db #0x26	; 38
	.db #0x26	; 38
	.db #0x26	; 38
	.db #0x26	; 38
	.db #0x26	; 38
	.db #0x27	; 39
	.db #0x28	; 40
	.db #0x26	; 38
	.db #0x26	; 38
	.db #0x26	; 38
	.db #0x26	; 38
	.db #0x26	; 38
	.db #0x26	; 38
	.db #0x26	; 38
	.db #0x26	; 38
	.db #0x26	; 38
	.db #0x26	; 38
	.db #0x26	; 38
	.db #0x26	; 38
	.db #0x26	; 38
	.db #0x26	; 38
	.db #0x26	; 38
	.db #0x26	; 38
	.db #0x26	; 38
	.db #0x26	; 38
	.db #0x26	; 38
	.db #0x26	; 38
	.db #0x26	; 38
	.db #0x26	; 38
	.db #0x26	; 38
	.db #0x26	; 38
	.db #0x26	; 38
	.db #0x26	; 38
	.db #0x26	; 38
	.db #0x26	; 38
	.db #0x26	; 38
	.db #0x26	; 38
	.db #0x2a	; 42
	.db #0x29	; 41
	.db #0x26	; 38
	.db #0x26	; 38
	.db #0x26	; 38
	.db #0x26	; 38
	.db #0x26	; 38
	.db #0x26	; 38
	.db #0x26	; 38
	.db #0x26	; 38
	.db #0x26	; 38
	.db #0x26	; 38
	.db #0x26	; 38
	.db #0x26	; 38
	.db #0x26	; 38
	.db #0x26	; 38
	.db #0x26	; 38
	.db #0x26	; 38
	.db #0x26	; 38
	.db #0x26	; 38
	.db #0x26	; 38
	.db #0x26	; 38
	.db #0x26	; 38
	.db #0x26	; 38
	.db #0x26	; 38
	.db #0x26	; 38
	.db #0x26	; 38
	.db #0x26	; 38
	.db #0x26	; 38
	.db #0x26	; 38
	.db #0x26	; 38
	.db #0x26	; 38
	.db #0x26	; 38
	.db #0x26	; 38
	.db #0x26	; 38
	.db #0x26	; 38
	.db #0x26	; 38
	.db #0x26	; 38
	.db #0x26	; 38
	.db #0x26	; 38
	.db #0x26	; 38
	.db #0x26	; 38
	.db #0x26	; 38
	.db #0x26	; 38
	.db #0x26	; 38
	.db #0x26	; 38
	.db #0x26	; 38
	.db #0x26	; 38
	.db #0x26	; 38
	.db #0x26	; 38
	.db #0x26	; 38
	.db #0x26	; 38
	.db #0x26	; 38
	.db #0x26	; 38
	.db #0x26	; 38
	.db #0x26	; 38
	.db #0x26	; 38
	.db #0x26	; 38
	.db #0x26	; 38
	.db #0x26	; 38
	.db #0x26	; 38
	.db #0x26	; 38
	.db #0x26	; 38
	.db #0x26	; 38
	.db #0x26	; 38
	.db #0x26	; 38
	.db #0x26	; 38
	.db #0x26	; 38
	.db #0x26	; 38
	.db #0x26	; 38
	.db #0x26	; 38
	.db #0x26	; 38
	.db #0x26	; 38
	.db #0x26	; 38
	.db #0x26	; 38
	.db #0x26	; 38
	.db #0x26	; 38
	.db #0x26	; 38
	.db #0x26	; 38
	.db #0x26	; 38
	.db #0x26	; 38
	.db #0x26	; 38
	.db #0x26	; 38
	.db #0x26	; 38
	.db #0x26	; 38
	.db #0x26	; 38
	.db #0x26	; 38
	.db #0x26	; 38
	.db #0x26	; 38
	.db #0x26	; 38
	.db #0x26	; 38
	.db #0x26	; 38
	.db #0x26	; 38
	.db #0x26	; 38
	.db #0x26	; 38
	.db #0x26	; 38
	.db #0x26	; 38
	.db #0x26	; 38
	.db #0x26	; 38
	.db #0x26	; 38
	.db #0x26	; 38
	.db #0x26	; 38
	.db #0x26	; 38
	.db #0x26	; 38
	.db #0x26	; 38
	.db #0x26	; 38
	.db #0x26	; 38
	.db #0x26	; 38
	.db #0x26	; 38
	.db #0x26	; 38
	.db #0x26	; 38
	.db #0x26	; 38
	.db #0x26	; 38
	.db #0x26	; 38
	.db #0x26	; 38
	.db #0x26	; 38
	.db #0x26	; 38
	.db #0x26	; 38
	.db #0x26	; 38
	.db #0x26	; 38
	.db #0x26	; 38
	.db #0x26	; 38
	.db #0x26	; 38
	.db #0x26	; 38
	.db #0x26	; 38
	.db #0x26	; 38
	.db #0x26	; 38
	.db #0x26	; 38
	.db #0x26	; 38
	.db #0x26	; 38
	.db #0x26	; 38
	.db #0x26	; 38
	.db #0x26	; 38
	.db #0x26	; 38
	.db #0x26	; 38
	.db #0x26	; 38
	.db #0x26	; 38
	.db #0x26	; 38
	.db #0x26	; 38
	.db #0x26	; 38
	.db #0x26	; 38
	.db #0x26	; 38
	.db #0x26	; 38
	.db #0x26	; 38
	.db #0x26	; 38
	.db #0x26	; 38
	.db #0x26	; 38
	.db #0x26	; 38
	.db #0x26	; 38
	.db #0x26	; 38
	.db #0x26	; 38
	.db #0x26	; 38
	.db #0x26	; 38
	.db #0x26	; 38
	.db #0x26	; 38
	.db #0x26	; 38
	.db #0x26	; 38
	.db #0x26	; 38
	.db #0x26	; 38
	.db #0x26	; 38
	.db #0x26	; 38
	.db #0x26	; 38
	.db #0x26	; 38
	.db #0x26	; 38
	.db #0x26	; 38
	.db #0x26	; 38
	.db #0x26	; 38
	.db #0x26	; 38
	.db #0x26	; 38
	.db #0x26	; 38
	.db #0x26	; 38
	.db #0x26	; 38
	.db #0x26	; 38
	.db #0x26	; 38
	.db #0x26	; 38
	.db #0x26	; 38
	.db #0x26	; 38
	.db #0x26	; 38
	.db #0x26	; 38
	.db #0x26	; 38
	.db #0x26	; 38
	.db #0x26	; 38
	.db #0x26	; 38
	.db #0x26	; 38
	.db #0x26	; 38
	.db #0x26	; 38
	.db #0x27	; 39
	.db #0x28	; 40
	.db #0x26	; 38
	.db #0x26	; 38
	.db #0x26	; 38
	.db #0x26	; 38
	.db #0x26	; 38
	.db #0x26	; 38
	.db #0x26	; 38
	.db #0x26	; 38
	.db #0x26	; 38
	.db #0x26	; 38
	.db #0x26	; 38
	.db #0x26	; 38
	.db #0x26	; 38
	.db #0x26	; 38
	.db #0x26	; 38
	.db #0x26	; 38
	.db #0x26	; 38
	.db #0x26	; 38
	.db #0x26	; 38
_backgroundtiles:
	.db #0x00	; 0
	.db #0x00	; 0
	.db #0x00	; 0
	.db #0x00	; 0
	.db #0x00	; 0
	.db #0x00	; 0
	.db #0x18	; 24
	.db #0x18	; 24
	.db #0x18	; 24
	.db #0x18	; 24
	.db #0x00	; 0
	.db #0x00	; 0
	.db #0x00	; 0
	.db #0x00	; 0
	.db #0x00	; 0
	.db #0x00	; 0
	.db #0x00	; 0
	.db #0x00	; 0
	.db #0x00	; 0
	.db #0x00	; 0
	.db #0x00	; 0
	.db #0x00	; 0
	.db #0x00	; 0
	.db #0x00	; 0
	.db #0x00	; 0
	.db #0x00	; 0
	.db #0x00	; 0
	.db #0x00	; 0
	.db #0x00	; 0
	.db #0x00	; 0
	.db #0x00	; 0
	.db #0x00	; 0
	.db #0x1f	; 31
	.db #0x1f	; 31
	.db #0x3f	; 63
	.db #0x3f	; 63
	.db #0x7f	; 127
	.db #0x7f	; 127
	.db #0xff	; 255
	.db #0xff	; 255
	.db #0xff	; 255
	.db #0xff	; 255
	.db #0xff	; 255
	.db #0xff	; 255
	.db #0xff	; 255
	.db #0xff	; 255
	.db #0xff	; 255
	.db #0xff	; 255
	.db #0xf8	; 248
	.db #0xf8	; 248
	.db #0xfc	; 252
	.db #0xfc	; 252
	.db #0xfe	; 254
	.db #0xfe	; 254
	.db #0xff	; 255
	.db #0xff	; 255
	.db #0xff	; 255
	.db #0xff	; 255
	.db #0xff	; 255
	.db #0xff	; 255
	.db #0xff	; 255
	.db #0xff	; 255
	.db #0xff	; 255
	.db #0xff	; 255
	.db #0xff	; 255
	.db #0xff	; 255
	.db #0xff	; 255
	.db #0xff	; 255
	.db #0xff	; 255
	.db #0xff	; 255
	.db #0xff	; 255
	.db #0xff	; 255
	.db #0xff	; 255
	.db #0xff	; 255
	.db #0xfe	; 254
	.db #0xfe	; 254
	.db #0xfc	; 252
	.db #0xfc	; 252
	.db #0xf8	; 248
	.db #0xf8	; 248
	.db #0xff	; 255
	.db #0xff	; 255
	.db #0xff	; 255
	.db #0xff	; 255
	.db #0xff	; 255
	.db #0xff	; 255
	.db #0xff	; 255
	.db #0xff	; 255
	.db #0xff	; 255
	.db #0xff	; 255
	.db #0x7f	; 127
	.db #0x7f	; 127
	.db #0x3f	; 63
	.db #0x3f	; 63
	.db #0x1f	; 31
	.db #0x1f	; 31
_healthblock:
	.db #0xfe	; 254
	.db #0xfe	; 254
	.db #0xfe	; 254
	.db #0xfe	; 254
	.db #0xfe	; 254
	.db #0xfe	; 254
	.db #0xfe	; 254
	.db #0xfe	; 254
	.db #0xfe	; 254
	.db #0xfe	; 254
	.db #0xfe	; 254
	.db #0xfe	; 254
	.db #0xfe	; 254
	.db #0xfe	; 254
	.db #0x00	; 0
	.db #0x00	; 0
_enemy1:
	.db #0x3c	; 60
	.db #0x3c	; 60
	.db #0x7e	; 126
	.db #0x7e	; 126
	.db #0xff	; 255
	.db #0xff	; 255
	.db #0xff	; 255
	.db #0xff	; 255
	.db #0xff	; 255
	.db #0xff	; 255
	.db #0xff	; 255
	.db #0xff	; 255
	.db #0x7e	; 126
	.db #0x7e	; 126
	.db #0x3c	; 60
	.db #0x3c	; 60
_projectile1:
	.db #0x3c	; 60
	.db #0x3c	; 60
	.db #0x7e	; 126
	.db #0x7e	; 126
	.db #0xff	; 255
	.db #0xff	; 255
	.db #0xff	; 255
	.db #0xff	; 255
	.db #0xff	; 255
	.db #0xff	; 255
	.db #0xff	; 255
	.db #0xff	; 255
	.db #0x7e	; 126
	.db #0x7e	; 126
	.db #0x3c	; 60
	.db #0x3c	; 60
_ProjectileTiles:
	.db #0x24	; 36
	.db #0x18	; 24
	.db #0x18	; 24
	.db #0x3c	; 60
	.db #0x18	; 24
	.db #0x3c	; 60
	.db #0x24	; 36
	.db #0x18	; 24
	.db #0x00	; 0
	.db #0x00	; 0
	.db #0x00	; 0
	.db #0x00	; 0
	.db #0x00	; 0
	.db #0x00	; 0
	.db #0x00	; 0
	.db #0x00	; 0
	.db #0x00	; 0
	.db #0x00	; 0
	.db #0x00	; 0
	.db #0x00	; 0
	.db #0x09	; 9
	.db #0x06	; 6
	.db #0x06	; 6
	.db #0x0f	; 15
	.db #0x06	; 6
	.db #0x0f	; 15
	.db #0x09	; 9
	.db #0x06	; 6
	.db #0x00	; 0
	.db #0x00	; 0
	.db #0x00	; 0
	.db #0x00	; 0
	.db #0x09	; 9
	.db #0x06	; 6
	.db #0x06	; 6
	.db #0x0f	; 15
	.db #0x06	; 6
	.db #0x0f	; 15
	.db #0x09	; 9
	.db #0x06	; 6
	.db #0x00	; 0
	.db #0x00	; 0
	.db #0x00	; 0
	.db #0x00	; 0
	.db #0x00	; 0
	.db #0x00	; 0
	.db #0x00	; 0
	.db #0x00	; 0
	.db #0x99	; 153
	.db #0x66	; 102	'f'
	.db #0x66	; 102	'f'
	.db #0xff	; 255
	.db #0x66	; 102	'f'
	.db #0xff	; 255
	.db #0x99	; 153
	.db #0x66	; 102	'f'
	.db #0x00	; 0
	.db #0x00	; 0
	.db #0x00	; 0
	.db #0x00	; 0
	.db #0x00	; 0
	.db #0x00	; 0
	.db #0x00	; 0
	.db #0x00	; 0
	.db #0x09	; 9
	.db #0x06	; 6
	.db #0x06	; 6
	.db #0x0f	; 15
	.db #0x06	; 6
	.db #0x0f	; 15
	.db #0x09	; 9
	.db #0x06	; 6
	.db #0x09	; 9
	.db #0x06	; 6
	.db #0x06	; 6
	.db #0x0f	; 15
	.db #0x06	; 6
	.db #0x0f	; 15
	.db #0x09	; 9
	.db #0x06	; 6
	.db #0x90	; 144
	.db #0x60	; 96
	.db #0x60	; 96
	.db #0xf0	; 240
	.db #0x60	; 96
	.db #0xf0	; 240
	.db #0x90	; 144
	.db #0x60	; 96
	.db #0x09	; 9
	.db #0x06	; 6
	.db #0x06	; 6
	.db #0x0f	; 15
	.db #0x06	; 6
	.db #0x0f	; 15
	.db #0x09	; 9
	.db #0x06	; 6
	.db #0x00	; 0
	.db #0x00	; 0
	.db #0x00	; 0
	.db #0x00	; 0
	.db #0x00	; 0
	.db #0x00	; 0
	.db #0x00	; 0
	.db #0x00	; 0
	.db #0x00	; 0
	.db #0x00	; 0
	.db #0x00	; 0
	.db #0x00	; 0
	.db #0x00	; 0
	.db #0x00	; 0
	.db #0x00	; 0
	.db #0x00	; 0
_BLANK:
	.db #0x26	; 38
_EMPTYSPRITE:
	.db #0x50	; 80	'P'
_ENEMYCOUNT:
	.db #0x05	; 5
_xSpawnPositions:
	.db #0x00	; 0
	.db #0x60	; 96
	.db #0xb0	; 176
	.db #0x00	; 0
	.db #0xb0	; 176
	.db #0x00	; 0
	.db #0x60	; 96
	.db #0xb0	; 176
_ySpawnPositions:
	.db #0x00	; 0
	.db #0x00	; 0
	.db #0x00	; 0
	.db #0x5c	; 92
	.db #0x5c	; 92
	.db #0xa0	; 160
	.db #0xa0	; 160
	.db #0xa0	; 160
_PROJECTILECOUNT:
	.db #0x05	; 5
_PLAYERSIZE:
	.db #0x08	; 8
_maxHull:
	.db #0x64	;  100	'd'
_maxShield:
	.db #0x64	;  100	'd'
;main.c:86: void setHealthBar(uint8_t row, uint8_t hp) {
;	---------------------------------
; Function setHealthBar
; ---------------------------------
_setHealthBar::
	add	sp, #-5
;main.c:87: if (hp >= 80) {
	ldhl	sp,	#8
	ld	a, (hl)
	sub	a, #0x50
	jr	C, 00102$
;main.c:88: unsigned char blockmap[] = {0x50,0x50,0x50,0x50,0x50};
	ldhl	sp,	#0
	ld	c, l
	ld	b, h
	ld	(hl), #0x50
	ld	l, c
;	spillPairReg hl
;	spillPairReg hl
	ld	h, b
;	spillPairReg hl
;	spillPairReg hl
	inc	hl
	ld	(hl), #0x50
	ld	l, c
;	spillPairReg hl
;	spillPairReg hl
	ld	h, b
;	spillPairReg hl
;	spillPairReg hl
	inc	hl
	inc	hl
	ld	(hl), #0x50
	ld	l, c
;	spillPairReg hl
;	spillPairReg hl
	ld	h, b
;	spillPairReg hl
;	spillPairReg hl
	inc	hl
	inc	hl
	inc	hl
	ld	(hl), #0x50
	ld	hl, #0x0004
	add	hl, bc
	ld	(hl), #0x50
;main.c:89: set_win_tiles(5,row,5,1,blockmap);
	push	bc
	ld	hl, #0x105
	push	hl
	ldhl	sp,	#11
	ld	h, (hl)
	ld	l, #0x05
	push	hl
	call	_set_win_tiles
	add	sp, #6
;main.c:90: return;
	jp	00109$
00102$:
;main.c:92: if (hp >= 60) {
	ldhl	sp,	#8
	ld	a, (hl)
	sub	a, #0x3c
	jr	C, 00104$
;main.c:93: unsigned char blockmap[] = {0x50,0x50,0x50,0x50,0x00};
	ldhl	sp,	#0
	ld	c, l
	ld	b, h
	ld	(hl), #0x50
	ld	l, c
;	spillPairReg hl
;	spillPairReg hl
	ld	h, b
;	spillPairReg hl
;	spillPairReg hl
	inc	hl
	ld	(hl), #0x50
	ld	l, c
;	spillPairReg hl
;	spillPairReg hl
	ld	h, b
;	spillPairReg hl
;	spillPairReg hl
	inc	hl
	inc	hl
	ld	(hl), #0x50
	ld	l, c
;	spillPairReg hl
;	spillPairReg hl
	ld	h, b
;	spillPairReg hl
;	spillPairReg hl
	inc	hl
	inc	hl
	inc	hl
	ld	(hl), #0x50
	ld	hl, #0x0004
	add	hl, bc
	ld	(hl), #0x00
;main.c:94: set_win_tiles(5,row,5,1,blockmap);
	push	bc
	ld	hl, #0x105
	push	hl
	ldhl	sp,	#11
	ld	h, (hl)
	ld	l, #0x05
	push	hl
	call	_set_win_tiles
	add	sp, #6
;main.c:95: return;
	jp	00109$
00104$:
;main.c:97: if (hp >= 40) {
	ldhl	sp,	#8
	ld	a, (hl)
	sub	a, #0x28
	jr	C, 00106$
;main.c:98: unsigned char blockmap[] = {0x50,0x50,0x50,0x00,0x00};
	ldhl	sp,	#0
	ld	c, l
	ld	b, h
	ld	(hl), #0x50
	ld	l, c
;	spillPairReg hl
;	spillPairReg hl
	ld	h, b
;	spillPairReg hl
;	spillPairReg hl
	inc	hl
	ld	(hl), #0x50
	ld	l, c
;	spillPairReg hl
;	spillPairReg hl
	ld	h, b
;	spillPairReg hl
;	spillPairReg hl
	inc	hl
	inc	hl
	ld	(hl), #0x50
	ld	e, c
	ld	d, b
	inc	de
	inc	de
	inc	de
	xor	a, a
	ld	(de), a
	ld	hl, #0x0004
	add	hl, bc
	ld	(hl), #0x00
;main.c:99: set_win_tiles(5,row,5,1,blockmap);
	push	bc
	ld	hl, #0x105
	push	hl
	ldhl	sp,	#11
	ld	h, (hl)
	ld	l, #0x05
	push	hl
	call	_set_win_tiles
	add	sp, #6
;main.c:100: return;
	jr	00109$
00106$:
;main.c:102: if (hp >= 20) {
	ldhl	sp,	#8
	ld	a, (hl)
	sub	a, #0x14
	jr	C, 00108$
;main.c:103: unsigned char blockmap[] = {0x50,0x50,0x00,0x00,0x00};
	ldhl	sp,	#0
	ld	c, l
	ld	b, h
	ld	(hl), #0x50
	ld	l, c
;	spillPairReg hl
;	spillPairReg hl
	ld	h, b
;	spillPairReg hl
;	spillPairReg hl
	inc	hl
	ld	(hl), #0x50
	ld	e, c
	ld	d, b
	inc	de
	inc	de
	xor	a, a
	ld	(de), a
	ld	e, c
	ld	d, b
	inc	de
	inc	de
	inc	de
	xor	a, a
	ld	(de), a
	ld	hl, #0x0004
	add	hl, bc
	ld	(hl), #0x00
;main.c:104: set_win_tiles(5,row,5,1,blockmap);
	push	bc
	ld	hl, #0x105
	push	hl
	ldhl	sp,	#11
	ld	h, (hl)
	ld	l, #0x05
	push	hl
	call	_set_win_tiles
	add	sp, #6
;main.c:105: return;
	jr	00109$
00108$:
;main.c:107: unsigned char blockmap[] = {0x50,0x00,0x00,0x00,0x00};
	ldhl	sp,	#0
	ld	c, l
	ld	b, h
	ld	(hl), #0x50
	ld	e, c
	ld	d, b
	inc	de
	xor	a, a
	ld	(de), a
	ld	e, c
	ld	d, b
	inc	de
	inc	de
	xor	a, a
	ld	(de), a
	ld	e, c
	ld	d, b
	inc	de
	inc	de
	inc	de
	xor	a, a
	ld	(de), a
	ld	hl, #0x0004
	add	hl, bc
	ld	(hl), #0x00
;main.c:108: set_win_tiles(5,row,5,1,blockmap);
	push	bc
	ld	hl, #0x105
	push	hl
	ldhl	sp,	#11
	ld	h, (hl)
	ld	l, #0x05
	push	hl
	call	_set_win_tiles
	add	sp, #6
;main.c:109: return;
00109$:
;main.c:111: }
	add	sp, #5
	ret
;main.c:113: void updateDirection() {
;	---------------------------------
; Function updateDirection
; ---------------------------------
_updateDirection::
	add	sp, #-4
;main.c:117: if ((joydata & J_RIGHT) && !(joydata & J_UP) && !(joydata & J_DOWN)) {
	ld	hl, #_joydata
	ld	e, (hl)
	ld	a, e
	and	a, #0x01
	ldhl	sp,	#0
	ld	(hl+), a
	xor	a, a
	ld	(hl+), a
	ld	a, e
	and	a, #0x04
	ld	(hl+), a
	xor	a, a
	ld	(hl-), a
	dec	hl
	ld	a, e
	and	a, #0x08
	ld	c, a
	ld	b, #0x00
	ld	a, (hl-)
	or	a, (hl)
	jr	Z, 00102$
	ldhl	sp,	#3
	ld	a, (hl-)
	or	a, (hl)
	jr	NZ, 00102$
	ld	a, b
	or	a, c
	jr	NZ, 00102$
;main.c:118: xDir = 1;
	ld	hl, #_xDir
	ld	(hl), #0x01
;main.c:119: yDir = 0;
	ld	hl, #_yDir
	ld	(hl), #0x00
00102$:
;main.c:121: if ((joydata & J_LEFT) && !(joydata & J_UP) && !(joydata & J_DOWN)) {
	ld	a, e
	and	a, #0x02
	ld	e, a
	ld	d, #0x00
	ld	a, d
	or	a, e
	jr	Z, 00106$
	ldhl	sp,	#3
	ld	a, (hl-)
	or	a, (hl)
	jr	NZ, 00106$
	ld	a, b
	or	a, c
	jr	NZ, 00106$
;main.c:122: xDir = -1;
	ld	hl, #_xDir
	ld	(hl), #0xff
;main.c:123: yDir = 0;
	ld	hl, #_yDir
	ld	(hl), #0x00
00106$:
;main.c:125: if ((joydata & J_UP) && !(joydata & J_LEFT) && !(joydata & J_RIGHT)) {
	ldhl	sp,	#3
	ld	a, (hl-)
	or	a, (hl)
	jr	Z, 00110$
	ld	a, d
	or	a, e
	jr	NZ, 00110$
	dec	hl
	ld	a, (hl-)
	or	a, (hl)
	jr	NZ, 00110$
;main.c:126: xDir = 0;
	ld	hl, #_xDir
	ld	(hl), #0x00
;main.c:127: yDir = -1;
	ld	hl, #_yDir
	ld	(hl), #0xff
00110$:
;main.c:129: if ((joydata & J_DOWN) && !(joydata & J_LEFT) && !(joydata & J_RIGHT)) {
	ld	a, b
	or	a, c
	jr	Z, 00114$
	ld	a, d
	or	a, e
	jr	NZ, 00114$
	ldhl	sp,	#1
	ld	a, (hl-)
	or	a, (hl)
	jr	NZ, 00114$
;main.c:130: xDir = 0;
	ld	hl, #_xDir
	ld	(hl), #0x00
;main.c:131: yDir = 1;
	ld	hl, #_yDir
	ld	(hl), #0x01
00114$:
;main.c:135: if ((joydata & J_UP) && (joydata & J_RIGHT)) {
	ldhl	sp,	#3
	ld	a, (hl-)
	or	a, (hl)
	jr	Z, 00118$
	dec	hl
	ld	a, (hl-)
	or	a, (hl)
	jr	Z, 00118$
;main.c:136: xDir = 1;
	ld	hl, #_xDir
	ld	(hl), #0x01
;main.c:137: yDir = -1;
	ld	hl, #_yDir
	ld	(hl), #0xff
00118$:
;main.c:139: if ((joydata & J_UP) && (joydata & J_LEFT)) {
	ldhl	sp,	#3
	ld	a, (hl-)
	or	a, (hl)
	jr	Z, 00121$
	ld	a, d
	or	a, e
	jr	Z, 00121$
;main.c:140: xDir = -1;
	ld	hl, #_xDir
	ld	(hl), #0xff
;main.c:141: yDir = -1;
	ld	hl, #_yDir
	ld	(hl), #0xff
00121$:
;main.c:143: if ((joydata & J_DOWN) && (joydata & J_RIGHT)) {
	ld	a, b
	or	a, c
	jr	Z, 00124$
	ldhl	sp,	#1
	ld	a, (hl-)
	or	a, (hl)
	jr	Z, 00124$
;main.c:144: xDir = 1;
	ld	hl, #_xDir
	ld	(hl), #0x01
;main.c:145: yDir = 1;
	ld	hl, #_yDir
	ld	(hl), #0x01
00124$:
;main.c:147: if ((joydata & J_DOWN) && (joydata & J_LEFT)) {
	ld	a, b
	or	a, c
	jr	Z, 00127$
	ld	a, d
	or	a, e
	jr	Z, 00127$
;main.c:148: xDir = -1;
	ld	hl, #_xDir
	ld	(hl), #0xff
;main.c:149: yDir = 1;
	ld	hl, #_yDir
	ld	(hl), #0x01
00127$:
;main.c:154: if (xDir == 0 && yDir == 0) {
	ld	a, (#_xDir)
	or	a, a
	jr	NZ, 00130$
	ld	a, (#_yDir)
	or	a, a
;main.c:155: return;
	jp	Z,00157$
00130$:
;main.c:158: uint8_t direction = 0;
	ld	c, #0x00
;main.c:160: if (xDir == 0 && yDir < 0) {
	ld	a, (#_yDir)
	rlca
	and	a,#0x01
	ldhl	sp,	#2
	ld	(hl), a
	ld	a, (#_xDir)
	or	a, a
	jr	NZ, 00133$
	ldhl	sp,	#2
	ld	a, (hl)
	or	a, a
	jr	Z, 00133$
;main.c:161: direction = 0;
	ld	c, #0x00
00133$:
;main.c:163: if (xDir > 0 && yDir < 0) {
	ld	hl, #_xDir
	ld	e, (hl)
	xor	a, a
	ld	d, a
	sub	a, (hl)
	bit	7, e
	jr	Z, 00349$
	bit	7, d
	jr	NZ, 00350$
	cp	a, a
	jr	00350$
00349$:
	bit	7, d
	jr	Z, 00350$
	scf
00350$:
	ld	a, #0x00
	rla
	ld	b, a
	or	a, a
	jr	Z, 00136$
	ldhl	sp,	#2
	ld	a, (hl)
	or	a, a
	jr	Z, 00136$
;main.c:164: direction = 1;
	ld	c, #0x01
00136$:
;main.c:166: if (xDir > 0 && yDir == 0) {
	ld	a, b
	or	a, a
	jr	Z, 00139$
	ld	a, (#_yDir)
	or	a, a
	jr	NZ, 00139$
;main.c:167: direction = 2;
	ld	c, #0x02
00139$:
;main.c:169: if (xDir > 0 && yDir > 0) {
	ld	hl, #_yDir
	ld	e, (hl)
	xor	a, a
	ld	d, a
	sub	a, (hl)
	bit	7, e
	jr	Z, 00351$
	bit	7, d
	jr	NZ, 00352$
	cp	a, a
	jr	00352$
00351$:
	bit	7, d
	jr	Z, 00352$
	scf
00352$:
	ld	a, #0x00
	rla
	ldhl	sp,	#3
	ld	(hl), a
	ld	a, b
	or	a, a
	jr	Z, 00142$
	ld	a, (hl)
	or	a, a
	jr	Z, 00142$
;main.c:170: direction = 3;
	ld	c, #0x03
00142$:
;main.c:172: if (xDir == 0 && yDir > 0) {
	ld	a, (#_xDir)
	or	a, a
	jr	NZ, 00145$
	ldhl	sp,	#3
	ld	a, (hl)
	or	a, a
	jr	Z, 00145$
;main.c:173: direction = 4;
	ld	c, #0x04
00145$:
;main.c:175: if (xDir < 0 && yDir > 0) {
	ld	a, (#_xDir)
	rlca
	and	a,#0x01
	ld	b, a
	or	a, a
	jr	Z, 00148$
	ldhl	sp,	#3
	ld	a, (hl)
	or	a, a
	jr	Z, 00148$
;main.c:176: direction = 5;
	ld	c, #0x05
00148$:
;main.c:178: if (xDir < 0 && yDir == 0) {
	ld	a, b
	or	a, a
	jr	Z, 00151$
	ld	a, (#_yDir)
	or	a, a
	jr	NZ, 00151$
;main.c:179: direction = 6;
	ld	c, #0x06
00151$:
;main.c:181: if (xDir < 0 && yDir < 0) {
	ld	a, b
	or	a, a
	jr	Z, 00154$
	ldhl	sp,	#2
	ld	a, (hl)
	or	a, a
	jr	Z, 00154$
;main.c:182: direction = 7;
	ld	c, #0x07
00154$:
;/home/milan/Documents/gameboy/gbdk/include/gb/gb.h:1447: shadow_OAM[nb].tile=tile;
	ld	hl, #(_shadow_OAM + 2)
	ld	(hl), c
;main.c:185: set_sprite_tile(0, direction);
00157$:
;main.c:186: }
	add	sp, #4
	ret
;main.c:218: void updateEnemyPositions() {
;	---------------------------------
; Function updateEnemyPositions
; ---------------------------------
_updateEnemyPositions::
	add	sp, #-16
;main.c:220: for (uint8_t i = 0; i < ENEMYCOUNT; ++i) {
	ldhl	sp,	#15
	ld	(hl), #0x00
00140$:
	ld	hl, #_ENEMYCOUNT
	ld	c, (hl)
	ldhl	sp,	#15
	ld	a, (hl)
	sub	a, c
	jp	NC, 00117$
;main.c:222: enemies[i].x -= xOverflow;
	ld	a, (hl)
	ld	d, #0x00
	add	a, a
	rl	d
	add	a, a
	rl	d
	add	a, a
	rl	d
	add	a, a
	rl	d
;main.c:232: if (enemies[i].y < playerDrawY) {
	ld	e, a
	ld	hl, #_enemies
	add	hl, de
	push	hl
	ld	a, l
	ldhl	sp,	#6
	ld	(hl), a
	pop	hl
	ld	a, h
	ldhl	sp,	#5
;main.c:222: enemies[i].x -= xOverflow;
	ld	(hl-), a
	ld	a, (hl+)
	ld	e, a
	ld	d, (hl)
	ld	a, (de)
	ld	b, a
	inc	de
	ld	a, (de)
	ld	c, a
	ld	e, b
	ld	d, c
	ld	hl, #_xOverflow
	ld	a,	(hl+)
	ld	h, (hl)
	ld	l, a
	ld	a, e
	sub	a, l
	ld	e, a
	ld	a, d
	sbc	a, h
	ldhl	sp,	#12
	ld	(hl-), a
	ld	(hl), e
	ldhl	sp,#4
	ld	a, (hl+)
	ld	e, a
	ld	d, (hl)
	ldhl	sp,	#11
	ld	a, (hl+)
	ld	(de), a
	inc	de
	ld	a, (hl)
	ld	(de), a
;main.c:223: enemies[i].y -= yOverflow;
	ldhl	sp,#4
	ld	a, (hl+)
	ld	e, a
	ld	d, (hl)
	ld	hl, #0x0002
	add	hl, de
	push	hl
	ld	a, l
	ldhl	sp,	#8
	ld	(hl), a
	pop	hl
	ld	a, h
	ldhl	sp,	#7
	ld	(hl-), a
	ld	a, (hl+)
	ld	e, a
	ld	d, (hl)
	ld	a, (de)
	ld	c, a
	inc	de
	ld	a, (de)
	ld	b, a
	ld	a, c
	ld	hl, #_yOverflow
	sub	a, (hl)
	inc	hl
	ld	c, a
	ld	a, b
	sbc	a, (hl)
	ld	b, a
	ldhl	sp,	#6
	ld	a,	(hl+)
	ld	h, (hl)
	ld	l, a
	ld	a, c
	ld	(hl+), a
	ld	(hl), b
;main.c:226: if (enemies[i].x < playerDrawX) {
	ld	hl, #_playerDrawX
	ld	c, (hl)
	ld	b, #0x00
;main.c:239: enemies[i].xSpeed = clamp(enemies[i].xSpeed, -enemies[i].speed, enemies[i].speed);
	ldhl	sp,#4
	ld	a, (hl+)
	ld	e, a
	ld	d, (hl)
	ld	hl, #0x000e
	add	hl, de
	push	hl
	ld	a, l
	ldhl	sp,	#10
	ld	(hl), a
	pop	hl
	ld	a, h
	ldhl	sp,	#9
	ld	(hl), a
;main.c:227: enemies[i].xSpeed += enemies[i].accel;
	ldhl	sp,#4
	ld	a, (hl+)
	ld	e, a
	ld	d, (hl)
	ld	hl, #0x000d
	add	hl, de
	inc	sp
	inc	sp
	push	hl
	ldhl	sp,#8
	ld	a, (hl+)
	ld	e, a
	ld	d, (hl)
	ld	a, (de)
	ldhl	sp,	#13
	ld	(hl+), a
	pop	de
	push	de
	ld	a, (de)
	ld	(hl), a
;main.c:226: if (enemies[i].x < playerDrawX) {
	ldhl	sp,	#11
	ld	a, (hl+)
	sub	a, c
	ld	a, (hl)
	sbc	a, b
	ld	d, (hl)
	ld	a, b
	bit	7,a
	jr	Z, 00273$
	bit	7, d
	jr	NZ, 00274$
	cp	a, a
	jr	00274$
00273$:
	bit	7, d
	jr	Z, 00274$
	scf
00274$:
	jr	NC, 00102$
;main.c:227: enemies[i].xSpeed += enemies[i].accel;
	ldhl	sp,	#14
	ld	a, (hl-)
	add	a, (hl)
	ld	c, a
	ldhl	sp,	#8
	ld	a,	(hl+)
	ld	h, (hl)
	ld	l, a
	ld	(hl), c
	jr	00103$
00102$:
;main.c:230: enemies[i].xSpeed -= enemies[i].accel;
	ldhl	sp,	#13
	ld	a, (hl+)
	sub	a, (hl)
	ld	c, a
	ldhl	sp,	#8
	ld	a,	(hl+)
	ld	h, (hl)
	ld	l, a
	ld	(hl), c
00103$:
;main.c:232: if (enemies[i].y < playerDrawY) {
	ldhl	sp,#6
	ld	a, (hl+)
	ld	e, a
	ld	d, (hl)
	ld	a, (de)
	ldhl	sp,	#2
	ld	(hl+), a
	inc	de
	ld	a, (de)
	ld	(hl), a
	ld	hl, #_playerDrawY
	ld	c, (hl)
	ld	b, #0x00
;main.c:240: enemies[i].ySpeed = clamp(enemies[i].ySpeed, -enemies[i].speed, enemies[i].speed);
	ldhl	sp,#4
	ld	a, (hl+)
	ld	e, a
	ld	d, (hl)
	ld	hl, #0x000f
	add	hl, de
	push	hl
	ld	a, l
	ldhl	sp,	#12
	ld	(hl), a
	pop	hl
	ld	a, h
	ldhl	sp,	#11
;main.c:233: enemies[i].ySpeed += enemies[i].accel;
	ld	(hl-), a
	ld	a, (hl+)
	ld	e, a
	ld	a, (hl+)
	inc	hl
	ld	d, a
	ld	a, (de)
	ld	(hl+), a
	pop	de
	push	de
	ld	a, (de)
	ld	(hl), a
;main.c:232: if (enemies[i].y < playerDrawY) {
	ldhl	sp,	#2
	ld	a, (hl+)
	sub	a, c
	ld	a, (hl)
	sbc	a, b
	ld	d, (hl)
	ld	a, b
	bit	7,a
	jr	Z, 00275$
	bit	7, d
	jr	NZ, 00276$
	cp	a, a
	jr	00276$
00275$:
	bit	7, d
	jr	Z, 00276$
	scf
00276$:
	jr	NC, 00105$
;main.c:233: enemies[i].ySpeed += enemies[i].accel;
	ldhl	sp,	#14
	ld	a, (hl-)
	add	a, (hl)
	ld	c, a
	ldhl	sp,	#10
	ld	a,	(hl+)
	ld	h, (hl)
	ld	l, a
	ld	(hl), c
	jr	00106$
00105$:
;main.c:236: enemies[i].ySpeed -= enemies[i].accel;
	ldhl	sp,	#13
	ld	a, (hl+)
	sub	a, (hl)
	ld	c, a
	ldhl	sp,	#10
	ld	a,	(hl+)
	ld	h, (hl)
	ld	l, a
	ld	(hl), c
00106$:
;main.c:239: enemies[i].xSpeed = clamp(enemies[i].xSpeed, -enemies[i].speed, enemies[i].speed);
	ldhl	sp,#4
	ld	a, (hl+)
	ld	e, a
	ld	d, (hl)
	ld	hl, #0x000c
	add	hl, de
	ld	c, l
	ld	b, h
	ld	a, (bc)
	ld	e, a
	ldhl	sp,	#12
	ld	a, e
	ld	(hl+), a
	xor	a, a
	sub	a, e
	ld	(hl), a
	ldhl	sp,#8
	ld	a, (hl+)
	ld	e, a
	ld	d, (hl)
	ld	a, (de)
	ldhl	sp,	#14
;main.c:191: return (value < min) ? min : (value > max) ? max : value;
	ld	(hl-), a
	ld	a, (hl+)
	ld	e, a
	ld	d, (hl)
	ld	a, (hl-)
	sub	a, (hl)
	bit	7, e
	jr	Z, 00277$
	bit	7, d
	jr	NZ, 00278$
	cp	a, a
	jr	00278$
00277$:
	bit	7, d
	jr	Z, 00278$
	scf
00278$:
	jr	NC, 00147$
	ldhl	sp,	#13
	ld	a, (hl)
	jr	00148$
00147$:
	ldhl	sp,	#14
	ld	a, (hl-)
	dec	hl
	ld	e, a
	ld	d, (hl)
	ld	a, (hl+)
	inc	hl
	sub	a, (hl)
	bit	7, e
	jr	Z, 00279$
	bit	7, d
	jr	NZ, 00280$
	cp	a, a
	jr	00280$
00279$:
	bit	7, d
	jr	Z, 00280$
	scf
00280$:
	jr	NC, 00149$
	ldhl	sp,	#12
	ld	a, (hl)
	jr	00150$
00149$:
	ldhl	sp,	#14
	ld	a, (hl)
00150$:
00148$:
;main.c:239: enemies[i].xSpeed = clamp(enemies[i].xSpeed, -enemies[i].speed, enemies[i].speed);
	ldhl	sp,	#8
	push	af
	ld	a,	(hl+)
	ld	h, (hl)
	ld	l, a
	pop	af
	ld	(hl), a
;main.c:240: enemies[i].ySpeed = clamp(enemies[i].ySpeed, -enemies[i].speed, enemies[i].speed);
	ld	a, (bc)
	ld	b, a
	ld	c, b
	xor	a, a
	sub	a, b
	ld	b, a
	ldhl	sp,#10
	ld	a, (hl+)
	ld	e, a
	ld	d, (hl)
	ld	a, (de)
	ld	l, a
;	spillPairReg hl
;	spillPairReg hl
;main.c:191: return (value < min) ? min : (value > max) ? max : value;
	ld	e, b
	ld	a,l
	ld	d,a
	sub	a, b
	bit	7, e
	jr	Z, 00281$
	bit	7, d
	jr	NZ, 00282$
	cp	a, a
	jr	00282$
00281$:
	bit	7, d
	jr	Z, 00282$
	scf
00282$:
	jr	NC, 00151$
	ld	c, b
	jr	00152$
00151$:
	ld	e, l
	ld	a,c
	ld	d,a
	sub	a, l
	bit	7, e
	jr	Z, 00283$
	bit	7, d
	jr	NZ, 00284$
	cp	a, a
	jr	00284$
00283$:
	bit	7, d
	jr	Z, 00284$
	scf
00284$:
	jr	C, 00154$
	ld	c, l
00154$:
00152$:
;main.c:240: enemies[i].ySpeed = clamp(enemies[i].ySpeed, -enemies[i].speed, enemies[i].speed);
	ldhl	sp,	#10
	ld	a,	(hl+)
	ld	h, (hl)
	ld	l, a
	ld	(hl), c
;main.c:243: enemies[i].xReserve += enemies[i].xSpeed;
	ldhl	sp,#4
	ld	a, (hl+)
	ld	e, a
	ld	d, (hl)
	ld	hl, #0x0004
	add	hl, de
	push	hl
	ld	a, l
	ldhl	sp,	#13
	ld	(hl), a
	pop	hl
	ld	a, h
	ldhl	sp,	#12
	ld	(hl-), a
	ld	a, (hl+)
	ld	e, a
	ld	d, (hl)
	ld	a, (de)
	ld	b, a
	ldhl	sp,#8
	ld	a, (hl+)
	ld	e, a
	ld	a, (hl+)
	inc	hl
	ld	d, a
	ld	a, (de)
	add	a, b
	ld	b, a
	ld	a,	(hl+)
	ld	h, (hl)
	ld	l, a
	ld	(hl), b
;main.c:244: enemies[i].yReserve += enemies[i].ySpeed;
	ldhl	sp,#4
	ld	a, (hl+)
	ld	e, a
	ld	d, (hl)
	ld	hl, #0x0005
	add	hl, de
	push	hl
	ld	a, l
	ldhl	sp,	#15
	ld	(hl), a
	pop	hl
	ld	a, h
	ldhl	sp,	#14
	ld	(hl-), a
	ld	a, (hl+)
	ld	e, a
	ld	d, (hl)
	ld	a, (de)
	add	a, c
	ld	c, a
	ld	a, (hl-)
	ld	l, (hl)
	ld	h, a
	ld	(hl), c
;main.c:248: if (enemies[i].xReserve >> 3 > 0) {
	sra	b
	sra	b
	sra	b
;main.c:243: enemies[i].xReserve += enemies[i].xSpeed;
	ldhl	sp,#11
	ld	a, (hl+)
	ld	e, a
	ld	a, (hl-)
	dec	hl
	ld	d, a
	ld	a, (de)
	ld	(hl), a
;main.c:248: if (enemies[i].xReserve >> 3 > 0) {
	ld	e, b
	xor	a, a
	ld	d, a
	sub	a, b
	bit	7, e
	jr	Z, 00285$
	bit	7, d
	jr	NZ, 00286$
	cp	a, a
	jr	00286$
00285$:
	bit	7, d
	jr	Z, 00286$
	scf
00286$:
	jr	NC, 00110$
;main.c:249: int8_t xMovement = enemies[i].xReserve >> 3;
	ldhl	sp,	#10
	ld	a, (hl)
	sra	a
	sra	a
	sra	a
	ld	(hl), a
;main.c:250: enemies[i].x += xMovement;
	ldhl	sp,#4
	ld	a, (hl+)
	ld	e, a
	ld	d, (hl)
	ld	a, (de)
	ld	c, a
	inc	de
	ld	a, (de)
	ld	b, a
	ldhl	sp,	#10
	ld	a, (hl)
	ld	e, a
	rlca
	sbc	a, a
	ld	d, a
	ld	l, c
;	spillPairReg hl
;	spillPairReg hl
	ld	h, b
;	spillPairReg hl
;	spillPairReg hl
	add	hl, de
	ld	c, l
	ld	b, h
	ldhl	sp,	#4
	ld	a,	(hl+)
	ld	h, (hl)
	ld	l, a
	ld	a, c
	ld	(hl+), a
	ld	(hl), b
;main.c:251: enemies[i].xReserve -=  xMovement << 3;
	ldhl	sp,#11
	ld	a, (hl+)
	ld	e, a
	ld	a, (hl-)
	dec	hl
	ld	d, a
	ld	a, (de)
	push	af
	ld	a, (hl+)
	add	a, a
	add	a, a
	add	a, a
	ld	c, a
	pop	af
	sub	a, c
	ld	c, a
	ld	a,	(hl+)
	ld	h, (hl)
	ld	l, a
	ld	(hl), c
	jr	00111$
00110$:
;main.c:254: else if ((-enemies[i].xReserve) >> 3 > 0){
	ldhl	sp,	#10
	ld	a, (hl)
	ld	c, a
	rlca
	sbc	a, a
	ld	b, a
	xor	a, a
	sub	a, c
	ld	c, a
	sbc	a, a
	sub	a, b
	ld	b, a
	sra	b
	rr	c
	sra	b
	rr	c
	sra	b
	rr	c
	ld	e, b
	xor	a, a
	ld	d, a
	cp	a, c
	sbc	a, b
	bit	7, e
	jr	Z, 00287$
	bit	7, d
	jr	NZ, 00288$
	cp	a, a
	jr	00288$
00287$:
	bit	7, d
	jr	Z, 00288$
	scf
00288$:
	jr	NC, 00111$
;main.c:255: int8_t xMovement = -((-enemies[i].xReserve) >> 3);
	xor	a, a
	sub	a, c
	ld	c, a
	ldhl	sp,	#10
	ld	(hl), c
;main.c:256: enemies[i].x += xMovement;
	ldhl	sp,#4
	ld	a, (hl+)
	ld	e, a
	ld	d, (hl)
	ld	a, (de)
	ld	c, a
	inc	de
	ld	a, (de)
	ld	b, a
	ldhl	sp,	#10
	ld	a, (hl)
	ld	e, a
	rlca
	sbc	a, a
	ld	d, a
	ld	l, c
;	spillPairReg hl
;	spillPairReg hl
	ld	h, b
;	spillPairReg hl
;	spillPairReg hl
	add	hl, de
	ld	c, l
	ld	b, h
	ldhl	sp,	#4
	ld	a,	(hl+)
	ld	h, (hl)
	ld	l, a
	ld	a, c
	ld	(hl+), a
	ld	(hl), b
;main.c:257: enemies[i].xReserve +=  (-xMovement) << 3;
	ldhl	sp,#11
	ld	a, (hl+)
	ld	e, a
	ld	a, (hl-)
	dec	hl
	ld	d, a
	ld	a, (de)
	ld	c, a
	xor	a, a
	sub	a, (hl)
	inc	hl
	add	a, a
	add	a, a
	add	a, a
	add	a, c
	ld	c, a
	ld	a,	(hl+)
	ld	h, (hl)
	ld	l, a
	ld	(hl), c
00111$:
;main.c:260: if (enemies[i].yReserve >> 3 > 0) {
	ldhl	sp,#13
	ld	a, (hl+)
	ld	e, a
	ld	d, (hl)
	ld	a, (de)
	ldhl	sp,	#11
	ld	(hl), a
	ld	a, (hl+)
	sra	a
	sra	a
	sra	a
	ld	(hl), a
	ld	e, (hl)
	xor	a, a
	ld	d, a
	sub	a, (hl)
	bit	7, e
	jr	Z, 00289$
	bit	7, d
	jr	NZ, 00290$
	cp	a, a
	jr	00290$
00289$:
	bit	7, d
	jr	Z, 00290$
	scf
00290$:
	jr	NC, 00115$
;main.c:261: int8_t yMovement = enemies[i].yReserve >> 3;
	ldhl	sp,	#12
	ld	a, (hl)
	ldhl	sp,	#8
;main.c:262: enemies[i].y += yMovement;
	ld	(hl-), a
	dec	hl
	ld	a, (hl+)
	ld	e, a
	ld	d, (hl)
	ld	a, (de)
	ldhl	sp,	#11
	ld	(hl+), a
	inc	de
	ld	a, (de)
	ld	(hl), a
	ldhl	sp,	#8
	ld	a, (hl)
	ldhl	sp,	#4
	ld	(hl+), a
	rlca
	sbc	a, a
	ld	(hl), a
	ldhl	sp,	#11
	ld	a, (hl-)
	dec	hl
	ld	(hl), a
	ldhl	sp,	#12
	ld	a, (hl-)
	dec	hl
	ld	(hl-), a
	ld	a, (hl+)
	ld	e, a
	ld	d, (hl)
	ldhl	sp,	#4
	ld	a,	(hl+)
	ld	h, (hl)
	ld	l, a
	add	hl, de
	push	hl
	ld	a, l
	ldhl	sp,	#13
	ld	(hl), a
	pop	hl
	ld	a, h
	ldhl	sp,	#12
	ld	(hl), a
	ldhl	sp,#6
	ld	a, (hl+)
	ld	e, a
	ld	d, (hl)
	ldhl	sp,	#11
	ld	a, (hl+)
	ld	(de), a
	inc	de
;main.c:263: enemies[i].yReserve -=  yMovement << 3;
	ld	a, (hl+)
	ld	(de), a
	ld	a, (hl+)
	ld	e, a
	ld	d, (hl)
	ld	a, (de)
	push	af
	ldhl	sp,	#10
	ld	a, (hl)
	add	a, a
	add	a, a
	add	a, a
	ld	c, a
	pop	af
	sub	a, c
	ld	c, a
	ldhl	sp,	#13
	ld	a,	(hl+)
	ld	h, (hl)
	ld	l, a
	ld	(hl), c
	jp	00141$
00115$:
;main.c:265: else if ((-enemies[i].yReserve) >> 3 > 0){
	ldhl	sp,	#11
	ld	a, (hl)
	ldhl	sp,	#8
	ld	(hl+), a
	rlca
	sbc	a, a
	ld	(hl), a
	ld	de, #0x0000
	ld	a, (hl-)
	ld	l, (hl)
	ld	h, a
	ld	a, e
	sub	a, l
	ld	e, a
	ld	a, d
	sbc	a, h
	ldhl	sp,	#12
	ld	(hl-), a
	ld	a, e
	ld	(hl+), a
	sra	(hl)
	dec	hl
	rr	(hl)
	inc	hl
	sra	(hl)
	dec	hl
	rr	(hl)
	inc	hl
	sra	(hl)
	dec	hl
	rr	(hl)
	xor	a, a
	sub	a, (hl)
	inc	hl
	ld	a, #0x00
	sbc	a, (hl)
	ld	a, #0x00
	ld	d, a
	bit	7, (hl)
	jr	Z, 00291$
	bit	7, d
	jr	NZ, 00292$
	cp	a, a
	jr	00292$
00291$:
	bit	7, d
	jr	Z, 00292$
	scf
00292$:
	jr	NC, 00141$
;main.c:266: int8_t yMovement = -((-enemies[i].yReserve) >> 3);
	ldhl	sp,	#11
	ld	a, (hl+)
	ld	c, a
	xor	a, a
	sub	a, c
	ld	(hl), a
	ld	a, (hl)
	ldhl	sp,	#8
;main.c:267: enemies[i].y += yMovement;
	ld	(hl-), a
	dec	hl
	ld	a, (hl+)
	ld	e, a
	ld	d, (hl)
	ld	a, (de)
	ldhl	sp,	#11
	ld	(hl+), a
	inc	de
	ld	a, (de)
	ld	(hl), a
	ldhl	sp,	#8
	ld	a, (hl)
	ldhl	sp,	#4
	ld	(hl+), a
	rlca
	sbc	a, a
	ld	(hl), a
	ldhl	sp,	#11
	ld	a, (hl-)
	dec	hl
	ld	(hl), a
	ldhl	sp,	#12
	ld	a, (hl-)
	dec	hl
	ld	(hl-), a
	ld	a, (hl+)
	ld	e, a
	ld	d, (hl)
	ldhl	sp,	#4
	ld	a,	(hl+)
	ld	h, (hl)
	ld	l, a
	add	hl, de
	push	hl
	ld	a, l
	ldhl	sp,	#13
	ld	(hl), a
	pop	hl
	ld	a, h
	ldhl	sp,	#12
	ld	(hl), a
	ldhl	sp,#6
	ld	a, (hl+)
	ld	e, a
	ld	d, (hl)
	ldhl	sp,	#11
	ld	a, (hl+)
	ld	(de), a
	inc	de
;main.c:268: enemies[i].yReserve +=  (-yMovement) << 3;
	ld	a, (hl+)
	ld	(de), a
	ld	a, (hl+)
	ld	e, a
	ld	d, (hl)
	ld	a, (de)
	ld	c, a
	xor	a, a
	ldhl	sp,	#8
	sub	a, (hl)
	add	a, a
	add	a, a
	add	a, a
	add	a, c
	ld	c, a
	ldhl	sp,	#13
	ld	a,	(hl+)
	ld	h, (hl)
	ld	l, a
	ld	(hl), c
00141$:
;main.c:220: for (uint8_t i = 0; i < ENEMYCOUNT; ++i) {
	ldhl	sp,	#15
	inc	(hl)
	jp	00140$
00117$:
;main.c:279: for (uint8_t i = 0; i < ENEMYCOUNT; ++i) {
	ldhl	sp,	#15
	ld	(hl), #0x00
00143$:
	ld	hl, #_ENEMYCOUNT
	ld	c, (hl)
	ldhl	sp,	#15
	ld	a, (hl)
	sub	a, c
	jp	NC, 00145$
;main.c:281: if (enemies[i].alive) {
	ld	a, (hl)
	ld	d, #0x00
	add	a, a
	rl	d
	add	a, a
	rl	d
	add	a, a
	rl	d
	add	a, a
	rl	d
	ld	e, a
	ld	hl, #_enemies
	add	hl, de
	push	hl
	ld	a, l
	ldhl	sp,	#9
	ld	(hl), a
	pop	hl
	ld	a, h
	ldhl	sp,	#8
	ld	(hl-), a
	ld	a, (hl+)
	ld	e, a
	ld	d, (hl)
	ld	hl, #0x0009
	add	hl, de
	ld	c, l
	ld	b, h
	ld	a, (bc)
	ldhl	sp,	#14
	ld	(hl), a
	ld	a, (hl)
	or	a, a
	jp	Z, 00132$
;main.c:282: if (enemies[i].visible == 1) {
	ldhl	sp,#7
	ld	a, (hl+)
	ld	e, a
	ld	d, (hl)
	ld	hl, #0x000a
	add	hl, de
	push	hl
	ld	a, l
	ldhl	sp,	#11
	ld	(hl), a
	pop	hl
	ld	a, h
	ldhl	sp,	#10
	ld	(hl-), a
	ld	a, (hl+)
	ld	e, a
	ld	a, (hl+)
	ld	d, a
	ld	a, (de)
	ld	(hl), a
;main.c:283: if (enemies[i].x < 0 || enemies[i].x > 172 || enemies[i].y < 0 || enemies[i].y > 152) {
	ldhl	sp,#7
	ld	a, (hl+)
	ld	e, a
	ld	d, (hl)
	ld	a, (de)
	ldhl	sp,	#5
	ld	(hl+), a
	inc	de
	ld	a, (de)
	ld	(hl+), a
	ld	a, (hl+)
	ld	e, a
	ld	d, (hl)
	ld	hl, #0x0002
	add	hl, de
	push	hl
	ld	a, l
	ldhl	sp,	#14
	ld	(hl), a
	pop	hl
	ld	a, h
	ldhl	sp,	#13
;main.c:285: set_sprite_tile(10+i, 0x7f);
	ld	(hl+), a
	inc	hl
	ld	a, (hl)
;main.c:283: if (enemies[i].x < 0 || enemies[i].x > 172 || enemies[i].y < 0 || enemies[i].y > 152) {
	ldhl	sp,	#5
	ld	c, (hl)
	inc	hl
	ld	b, (hl)
;main.c:285: set_sprite_tile(10+i, 0x7f);
	add	a, #0x0a
	ldhl	sp,	#14
	ld	(hl), a
;main.c:283: if (enemies[i].x < 0 || enemies[i].x > 172 || enemies[i].y < 0 || enemies[i].y > 152) {
	ld	a, b
	rlca
	and	a,#0x01
	ld	l, a
;	spillPairReg hl
;	spillPairReg hl
;main.c:282: if (enemies[i].visible == 1) {
	push	hl
	ldhl	sp,	#13
	ld	a, (hl)
	dec	a
	pop	hl
	jr	NZ, 00129$
;main.c:283: if (enemies[i].x < 0 || enemies[i].x > 172 || enemies[i].y < 0 || enemies[i].y > 152) {
	ld	a, l
	or	a, a
	jr	NZ, 00118$
	ld	e, b
	ld	d, #0x00
	ld	a, #0xac
	cp	a, c
	ld	a, #0x00
	sbc	a, b
	bit	7, e
	jr	Z, 00296$
	bit	7, d
	jr	NZ, 00297$
	cp	a, a
	jr	00297$
00296$:
	bit	7, d
	jr	Z, 00297$
	scf
00297$:
	jr	C, 00118$
	ldhl	sp,#12
	ld	a, (hl+)
	ld	e, a
	ld	d, (hl)
	ld	a, (de)
	ld	c, a
	inc	de
	ld	a, (de)
	ld	b, a
	bit	7, b
	jr	NZ, 00118$
	ld	e, b
	ld	d, #0x00
	ld	a, #0x98
	cp	a, c
	ld	a, #0x00
	sbc	a, b
	bit	7, e
	jr	Z, 00298$
	bit	7, d
	jr	NZ, 00299$
	cp	a, a
	jr	00299$
00298$:
	bit	7, d
	jr	Z, 00299$
	scf
00299$:
	jr	NC, 00132$
00118$:
;main.c:284: enemies[i].visible = 0;
	ldhl	sp,	#9
	ld	a,	(hl+)
	ld	h, (hl)
	ld	l, a
	ld	(hl), #0x00
;main.c:285: set_sprite_tile(10+i, 0x7f);
	ldhl	sp,	#14
;/home/milan/Documents/gameboy/gbdk/include/gb/gb.h:1447: shadow_OAM[nb].tile=tile;
	ld	l, (hl)
	ld	bc, #_shadow_OAM+0
;	spillPairReg hl
;	spillPairReg hl
	ld	h, #0x00
;	spillPairReg hl
;	spillPairReg hl
	add	hl, hl
	add	hl, hl
	add	hl, bc
	inc	hl
	inc	hl
	ld	(hl), #0x7f
;main.c:285: set_sprite_tile(10+i, 0x7f);
	jr	00132$
00129$:
;main.c:289: if (enemies[i].x >= 0 && enemies[i].x < 172 && enemies[i].y > 0 && enemies[i].y < 152) {
	bit	0, l
	jr	NZ, 00132$
	ld	a, c
	sub	a, #0xac
	ld	a, b
	rla
	ccf
	rra
	sbc	a, #0x80
	jr	NC, 00132$
	ldhl	sp,#12
	ld	a, (hl+)
	ld	e, a
	ld	d, (hl)
	ld	a, (de)
	ld	c, a
	inc	de
	ld	a, (de)
	ld	b, a
	ld	e, b
	xor	a, a
	ld	d, a
	cp	a, c
	sbc	a, b
	bit	7, e
	jr	Z, 00300$
	bit	7, d
	jr	NZ, 00301$
	cp	a, a
	jr	00301$
00300$:
	bit	7, d
	jr	Z, 00301$
	scf
00301$:
	jr	NC, 00132$
	ld	a, c
	sub	a, #0x98
	ld	a, b
	rla
	ccf
	rra
	sbc	a, #0x80
	jr	NC, 00132$
;main.c:290: enemies[i].visible = 1;
	ldhl	sp,	#9
	ld	a,	(hl+)
	ld	h, (hl)
	ld	l, a
	ld	(hl), #0x01
;main.c:291: set_sprite_tile(10+i, enemies[i].sprite0);
	ldhl	sp,#7
	ld	a, (hl+)
	ld	e, a
	ld	d, (hl)
	ld	hl, #0x0006
	add	hl, de
	ld	c, l
	ld	b, h
	ld	a, (bc)
	ld	c, a
	ldhl	sp,	#14
;/home/milan/Documents/gameboy/gbdk/include/gb/gb.h:1447: shadow_OAM[nb].tile=tile;
	ld	l, (hl)
	ld	de, #_shadow_OAM+0
;	spillPairReg hl
;	spillPairReg hl
	ld	h, #0x00
;	spillPairReg hl
;	spillPairReg hl
	add	hl, hl
	add	hl, hl
	add	hl, de
	inc	hl
	inc	hl
	ld	(hl), c
;main.c:291: set_sprite_tile(10+i, enemies[i].sprite0);
00132$:
;main.c:296: move_sprite(10+i, enemies[i].x, enemies[i].y);
	ldhl	sp,	#15
	ld	l, (hl)
	ld	h, #0x00
	add	hl, hl
	add	hl, hl
	add	hl, hl
	add	hl, hl
	ld	de, #_enemies
	add	hl, de
	ld	c, l
	ld	b, h
	inc	bc
	inc	bc
	ld	a, (bc)
	ld	b, a
	ld	c, (hl)
	ldhl	sp,	#15
	ld	a, (hl)
	add	a, #0x0a
;/home/milan/Documents/gameboy/gbdk/include/gb/gb.h:1520: OAM_item_t * itm = &shadow_OAM[nb];
	ld	l, a
;	spillPairReg hl
;	spillPairReg hl
	ld	h, #0x00
;	spillPairReg hl
;	spillPairReg hl
	add	hl, hl
	add	hl, hl
	ld	de, #_shadow_OAM
	add	hl, de
;/home/milan/Documents/gameboy/gbdk/include/gb/gb.h:1521: itm->y=y, itm->x=x;
	ld	a, b
	ld	(hl+), a
	ld	(hl), c
;main.c:279: for (uint8_t i = 0; i < ENEMYCOUNT; ++i) {
	ldhl	sp,	#15
	inc	(hl)
	jp	00143$
00145$:
;main.c:298: }
	add	sp, #16
	ret
;main.c:300: void initEnemies(uint8_t loadSprites) {
;	---------------------------------
; Function initEnemies
; ---------------------------------
_initEnemies::
	add	sp, #-7
;main.c:302: if (loadSprites) {
	ldhl	sp,	#9
	ld	a, (hl)
	or	a, a
	jr	Z, 00116$
;main.c:304: set_sprite_data(9, 2, enemy1);
	ld	de, #_enemy1
	push	de
	ld	hl, #0x209
	push	hl
	call	_set_sprite_data
	add	sp, #4
;main.c:309: for (uint8_t i = 0; i < ENEMYCOUNT; ++i) {
00116$:
	ld	c, #0x00
00109$:
	ld	hl, #_ENEMYCOUNT
	ld	b, (hl)
	ld	a, c
	sub	a, b
	jp	NC, 00111$
;main.c:310: if (enemies[i].alive == 0) {
	ld	l, c
;	spillPairReg hl
;	spillPairReg hl
	ld	h, #0x00
;	spillPairReg hl
;	spillPairReg hl
	add	hl, hl
	add	hl, hl
	add	hl, hl
	add	hl, hl
	ld	e, l
	ld	d, h
	ld	hl, #_enemies
	add	hl, de
	inc	sp
	inc	sp
	ld	e, l
	ld	d, h
	push	de
	ld	hl, #0x0009
	add	hl, de
	ld	e, l
	ld	d, h
	ld	a, (de)
	or	a, a
	jr	NZ, 00110$
;main.c:312: enemies[i] = blob;
	pop	de
	push	de
	push	bc
	ld	hl, #0x0010
	push	hl
	ld	hl, #_blob
	push	hl
	push	de
	call	___memcpy
	add	sp, #6
	call	_rand
	ld	a, e
	pop	bc
	and	a, #0x07
;main.c:316: enemies[i].x = xSpawnPositions[posIndex];
	ld	b, a
	add	a,#<(_xSpawnPositions)
	ld	e, a
	ld	a, #>(_xSpawnPositions)
	adc	a, #0x00
	ld	d, a
	ld	a, (de)
	ldhl	sp,	#2
	ld	(hl+), a
	xor	a, a
	ld	(hl-), a
	pop	de
	push	de
	ld	a, (hl+)
	ld	(de), a
	inc	de
	ld	a, (hl)
	ld	(de), a
;main.c:317: enemies[i].y = ySpawnPositions[posIndex];
	pop	de
	push	de
	inc	de
	inc	de
	ld	a, b
	add	a, #<(_ySpawnPositions)
	ld	l, a
;	spillPairReg hl
;	spillPairReg hl
	ld	a, #0x00
	adc	a, #>(_ySpawnPositions)
	ld	h, a
;	spillPairReg hl
;	spillPairReg hl
	ld	a, (hl)
	ldhl	sp,	#4
	ld	(hl+), a
	xor	a, a
	ld	(hl-), a
	ld	a, (hl+)
	ld	(de), a
	inc	de
	ld	a, (hl)
	ld	(de), a
;main.c:319: set_sprite_tile(10+i, enemies[i].sprite0);
	pop	de
	push	de
	ld	hl, #0x0006
	add	hl, de
	ld	e, l
	ld	d, h
	ld	a, (de)
	ld	b, a
	ld	a, c
	add	a, #0x0a
	ldhl	sp,	#6
	ld	(hl), a
	ld	e, (hl)
;/home/milan/Documents/gameboy/gbdk/include/gb/gb.h:1447: shadow_OAM[nb].tile=tile;
	ld	h, #0x00
;	spillPairReg hl
;	spillPairReg hl
	ld	l, e
	add	hl, hl
	add	hl, hl
	ld	de, #_shadow_OAM
	add	hl, de
	inc	hl
	inc	hl
	ld	(hl), b
;main.c:320: move_sprite(10+i, enemies[i].x, enemies[i].y);
	ldhl	sp,	#4
	ld	a, (hl-)
	dec	hl
	ld	e, a
	ld	b, (hl)
	ldhl	sp,	#6
	ld	d, (hl)
;/home/milan/Documents/gameboy/gbdk/include/gb/gb.h:1520: OAM_item_t * itm = &shadow_OAM[nb];
	ld	h, #0x00
;	spillPairReg hl
;	spillPairReg hl
	ld	l, d
	add	hl, hl
	add	hl, hl
	push	de
	ld	de, #_shadow_OAM
	add	hl, de
	pop	de
;/home/milan/Documents/gameboy/gbdk/include/gb/gb.h:1521: itm->y=y, itm->x=x;
	ld	a, e
	ld	(hl+), a
	ld	(hl), b
;main.c:320: move_sprite(10+i, enemies[i].x, enemies[i].y);
00110$:
;main.c:309: for (uint8_t i = 0; i < ENEMYCOUNT; ++i) {
	inc	c
	jp	00109$
00111$:
;main.c:323: }
	add	sp, #7
	ret
;main.c:326: void move() {
;	---------------------------------
; Function move
; ---------------------------------
_move::
	dec	sp
;main.c:330: if (joydata & J_A) {
	ld	a, (#_joydata)
	bit	4, a
	jr	Z, 00102$
;main.c:331: xSpeed += xDir + xDir + xDir;
	ld	hl, #_xDir
	ld	a, (hl)
	add	a, a
	add	a, (hl)
	ld	hl, #_xSpeed
	add	a, (hl)
	ld	(hl), a
;main.c:332: ySpeed += yDir + yDir + yDir;
	ld	hl, #_yDir
	ld	a, (hl)
	add	a, a
	add	a, (hl)
	ld	hl, #_ySpeed
	add	a, (hl)
	ld	(hl), a
00102$:
;main.c:336: xSpeed = clamp(xSpeed, -100, 100);
	ld	hl, #_xSpeed
	ld	c, (hl)
;main.c:191: return (value < min) ? min : (value > max) ? max : value;
	ld	a, c
	xor	a, #0x80
	sub	a, #0x1c
	jr	NC, 00147$
	ld	c, #0x9c
	jr	00148$
00147$:
	ld	e, c
	ld	a,#0x64
	ld	d,a
	sub	a, c
	bit	7, e
	jr	Z, 00289$
	bit	7, d
	jr	NZ, 00290$
	cp	a, a
	jr	00290$
00289$:
	bit	7, d
	jr	Z, 00290$
	scf
00290$:
	jr	NC, 00149$
	ld	c, #0x64
00149$:
00148$:
	ld	hl, #_xSpeed
	ld	(hl), c
;main.c:337: ySpeed = clamp(ySpeed, -100, 100);
	ld	hl, #_ySpeed
	ld	c, (hl)
;main.c:191: return (value < min) ? min : (value > max) ? max : value;
	ld	a, c
	xor	a, #0x80
	sub	a, #0x1c
	jr	NC, 00151$
	ld	c, #0x9c
	jr	00152$
00151$:
	ld	e, c
	ld	a,#0x64
	ld	d,a
	sub	a, c
	bit	7, e
	jr	Z, 00291$
	bit	7, d
	jr	NZ, 00292$
	cp	a, a
	jr	00292$
00291$:
	bit	7, d
	jr	Z, 00292$
	scf
00292$:
	jr	NC, 00153$
	ld	c, #0x64
00153$:
00152$:
	ld	hl, #_ySpeed
	ld	(hl), c
;main.c:339: xOverflow = 0;
	xor	a, a
	ld	hl, #_xOverflow
	ld	(hl+), a
	ld	(hl), a
;main.c:340: yOverflow = 0;
	xor	a, a
	ld	hl, #_yOverflow
	ld	(hl+), a
	ld	(hl), a
;main.c:345: uint8_t xCollisionPoint = playerDrawX -4; 
	ld	hl, #_playerDrawX
	ld	b, (hl)
	ld	a, b
	add	a, #0xfc
	ld	c, a
;main.c:347: if (xSpeed > 0) {
	ld	hl, #_xSpeed
	ld	e, (hl)
	xor	a, a
	ld	d, a
	sub	a, (hl)
	bit	7, e
	jr	Z, 00293$
	bit	7, d
	jr	NZ, 00294$
	cp	a, a
	jr	00294$
00293$:
	bit	7, d
	jr	Z, 00294$
	scf
00294$:
	jr	NC, 00104$
;main.c:348: xCollisionPoint = playerDrawX; //right edge
	ld	hl, #_playerDrawX
	ld	c, (hl)
00104$:
;main.c:350: if (xSpeed < 0) {
	ld	a, (#_xSpeed)
	bit	7, a
	jr	Z, 00106$
;main.c:351: xCollisionPoint = playerDrawX -8; //left edge
	ld	a, b
	add	a, #0xf8
	ld	c, a
00106$:
;main.c:355: int16_t bgindX = ((xCollisionPoint + bgX) >> 3)%32;
	ld	b, #0x00
	ld	a, c
	ld	hl, #_bgX
	add	a, (hl)
	inc	hl
	ld	c, a
	ld	a, b
	adc	a, (hl)
	ld	b, a
	sra	b
	rr	c
	sra	b
	rr	c
	sra	b
	rr	c
	ld	de, #0x0020
	push	de
	push	bc
	call	__modsint
	add	sp, #4
;main.c:359: uint8_t bgindY = ((playerDrawY-12 + bgY) >> 3)%32; 
	ld	a, (#_playerDrawY)
	ld	b, #0x00
	add	a, #0xf4
	ld	c, a
	ld	a, b
	adc	a, #0xff
	ld	b, a
	ld	a, c
	ld	hl, #_bgY
	add	a, (hl)
	inc	hl
	ld	c, a
	ld	a, b
	adc	a, (hl)
	ld	b, a
	sra	b
	rr	c
	sra	b
	rr	c
	sra	b
	rr	c
	push	de
	ld	hl, #0x0020
	push	hl
	push	bc
	call	__modsint
	add	sp, #4
	ld	l, e
;	spillPairReg hl
;	spillPairReg hl
;	spillPairReg hl
;	spillPairReg hl
	pop	de
;main.c:362: uint16_t ind = 32*bgindY + bgindX;
	ld	h, #0x00
;	spillPairReg hl
;	spillPairReg hl
	add	hl, hl
	add	hl, hl
	add	hl, hl
	add	hl, hl
	add	hl, hl
	add	hl, de
;main.c:363: uint8_t result = background1[ind] != BLANK[0];
	ld	bc,#_background1
	add	hl,bc
	ld	c, (hl)
	ld	a, (#_BLANK + 0)
	ldhl	sp,	#0
	ld	(hl), a
	ld	a, c
	ldhl	sp,	#0
	sub	a, (hl)
	ld	a, #0x01
	jr	Z, 00296$
	xor	a, a
00296$:
;main.c:364: if (result == 0) {
	xor	a,#0x01
	jp	NZ, 00111$
;main.c:365: playerX+=xSpeed;
	ld	a, (#_xSpeed)
	ld	c, a
	rlca
	sbc	a, a
	ld	b, a
	ld	hl, #_playerX
	ld	l, (hl)
;	spillPairReg hl
;	spillPairReg hl
	ld	a, (_playerX + 1)
	ld	h, a
;	spillPairReg hl
;	spillPairReg hl
	add	hl, bc
	ld	c, l
	ld	a, h
	ld	hl, #_playerX
	ld	(hl), c
	inc	hl
;main.c:367: uint16_t limitedPlayerX = u16Clamp(playerX, 58<<5, 110<<5);//0->160, with 8 px margin for left edge & 50px for the edges
	ld	(hl-), a
	ld	a, (hl+)
	ld	c, a
	ld	b, (hl)
	ld	a, c
	sub	a, #0x40
	ld	a, b
	sbc	a, #0x07
	jr	NC, 00155$
	ld	bc, #0x0740
	jr	00156$
00155$:
	ld	a, #0xc0
	cp	a, c
	ld	a, #0x0d
	sbc	a, b
	jr	NC, 00157$
	ld	bc, #0x0dc0
00157$:
00156$:
	ld	e,c
	ld	d,b
;main.c:369: xOverflow = (playerX - limitedPlayerX);
	ld	a, (#_playerX)
	sub	a, e
	ld	(#_xOverflow),a
	ld	a, (#_playerX + 1)
	sbc	a, d
	ld	hl, #_xOverflow + 1
;main.c:370: if (xOverflow >= 0) {
	ld	(hl-), a
	ld	l, (hl)
;	spillPairReg hl
;	spillPairReg hl
	ld	a, (_xOverflow + 1)
;	spillPairReg hl
;	spillPairReg hl
	bit	7,a
	jr	NZ, 00108$
;main.c:371: xOverflow = xOverflow >> 5;
	ld	hl, #_xOverflow + 1
	sra	(hl)
	dec	hl
	rr	(hl)
	inc	hl
	sra	(hl)
	dec	hl
	rr	(hl)
	inc	hl
	sra	(hl)
	dec	hl
	rr	(hl)
	inc	hl
	sra	(hl)
	dec	hl
	rr	(hl)
	inc	hl
	sra	(hl)
	dec	hl
	rr	(hl)
	jr	00109$
00108$:
;main.c:374: xOverflow = -((-xOverflow) >> 5);
	xor	a, a
	ld	hl, #_xOverflow
	sub	a, (hl)
	inc	hl
	ld	e, a
	sbc	a, a
	sub	a, (hl)
	dec	hl
	ld	d, a
	sra	d
	rr	e
	sra	d
	rr	e
	sra	d
	rr	e
	sra	d
	rr	e
	sra	d
	rr	e
	xor	a, a
	sub	a, e
	ld	(hl+), a
	sbc	a, a
	sub	a, d
	ld	(hl), a
00109$:
;main.c:376: bgX += xOverflow;
	ld	a, (#_bgX)
	ld	hl, #_xOverflow
	add	a, (hl)
	ld	hl, #_bgX
	ld	(hl+), a
	ld	a, (hl)
	ld	hl, #_xOverflow + 1
	adc	a, (hl)
	ld	(#_bgX + 1),a
;main.c:377: playerX = limitedPlayerX;
	ld	hl, #_playerX
	ld	a, c
	ld	(hl+), a
;main.c:378: playerDrawX=playerX >> 5;
	ld	a, b
	ld	(hl-), a
	ld	a, (hl+)
	ld	c, a
	ld	b, (hl)
	srl	b
	rr	c
	srl	b
	rr	c
	srl	b
	rr	c
	srl	b
	rr	c
	srl	b
	rr	c
	ld	hl, #_playerDrawX
	ld	(hl), c
	jr	00112$
00111$:
;main.c:386: xSpeed = 0;
	ld	hl, #_xSpeed
	ld	(hl), #0x00
00112$:
;main.c:394: uint8_t yCollisionPoint = playerDrawY -12; 
	ld	hl, #_playerDrawY
	ld	b, (hl)
	ld	a, b
	add	a, #0xf4
	ld	c, a
;main.c:396: if (ySpeed > 0) {
	ld	hl, #_ySpeed
	ld	e, (hl)
	xor	a, a
	ld	d, a
	sub	a, (hl)
	bit	7, e
	jr	Z, 00297$
	bit	7, d
	jr	NZ, 00298$
	cp	a, a
	jr	00298$
00297$:
	bit	7, d
	jr	Z, 00298$
	scf
00298$:
	jr	NC, 00114$
;main.c:397: yCollisionPoint = playerDrawY - 8; //bottom edge, only half the height, so -8
	ld	a, b
	add	a, #0xf8
	ld	c, a
00114$:
;main.c:399: if (ySpeed < 0) {
	ld	a, (#_ySpeed)
	bit	7, a
	jr	Z, 00116$
;main.c:400: yCollisionPoint = playerDrawY -16; //top edge, 
	ld	a, b
	add	a, #0xf0
	ld	c, a
00116$:
;main.c:404: bgindX = ((playerDrawX -4 + bgX) >> 3)%32;
	ld	a, (#_playerDrawX)
	ld	b, #0x00
	add	a, #0xfc
	ld	e, a
	ld	a, b
	adc	a, #0xff
	ld	d, a
	ld	a, e
	ld	hl, #_bgX
	add	a, (hl)
	inc	hl
	ld	e, a
	ld	a, d
	adc	a, (hl)
	ld	d, a
	sra	d
	rr	e
	sra	d
	rr	e
	sra	d
	rr	e
	push	bc
	ld	hl, #0x0020
	push	hl
	push	de
	call	__modsint
	add	sp, #4
	pop	bc
;main.c:407: bgindY = ((yCollisionPoint + bgY) >> 3)%32; 
	ld	b, #0x00
	ld	a, c
	ld	hl, #_bgY
	add	a, (hl)
	inc	hl
	ld	c, a
	ld	a, b
	adc	a, (hl)
	ld	b, a
	sra	b
	rr	c
	sra	b
	rr	c
	sra	b
	rr	c
	push	de
	ld	hl, #0x0020
	push	hl
	push	bc
	call	__modsint
	add	sp, #4
	ld	l, e
;	spillPairReg hl
;	spillPairReg hl
	pop	de
;main.c:410: ind = 32*bgindY + bgindX;
	ld	h, #0x00
;	spillPairReg hl
;	spillPairReg hl
	add	hl, hl
	add	hl, hl
	add	hl, hl
	add	hl, hl
	add	hl, hl
	add	hl, de
;main.c:411: result = background1[ind] != BLANK[0];
	ld	de, #_background1
	add	hl, de
	ld	c, (hl)
	ldhl	sp,	#0
	ld	a, (hl)
	sub	a, c
	ld	a, #0x01
	jr	Z, 00300$
	xor	a, a
00300$:
;main.c:412: if (result == 0) {
	xor	a,#0x01
	jp	NZ, 00121$
;main.c:413: playerY += ySpeed;
	ld	a, (#_ySpeed)
	ld	c, a
	rlca
	sbc	a, a
	ld	b, a
	ld	hl, #_playerY
	ld	l, (hl)
;	spillPairReg hl
;	spillPairReg hl
	ld	a, (_playerY + 1)
	ld	h, a
;	spillPairReg hl
;	spillPairReg hl
	add	hl, bc
	ld	c, l
	ld	b, h
	ld	hl, #_playerY
	ld	a, c
	ld	(hl+), a
;main.c:415: uint16_t limitedPlayerY = u16Clamp(playerY, 61<<5, 107<<5);//0->144, with 16px margin for top & -8 for bottom, 45px for edges
	ld	a, b
	ld	(hl-), a
	ld	a, (hl+)
	ld	e, a
	ld	d, (hl)
	ld	a, e
	sub	a, #0xa0
	ld	a, d
	sbc	a, #0x07
	jr	NC, 00159$
	ld	de, #0x07a0
	jr	00160$
00159$:
	ld	a, #0x60
	cp	a, e
	ld	a, #0x0d
	sbc	a, d
	jr	NC, 00161$
	ld	de, #0x0d60
00161$:
00160$:
	ld	c, e
	ld	b, d
;main.c:417: yOverflow = (playerY - limitedPlayerY);
	ld	a, (#_playerY)
	sub	a, e
	ld	(#_yOverflow),a
	ld	a, (#_playerY + 1)
	sbc	a, d
	ld	hl, #_yOverflow + 1
;main.c:418: if (yOverflow >= 0) {
	ld	(hl-), a
	ld	l, (hl)
;	spillPairReg hl
;	spillPairReg hl
	ld	a, (_yOverflow + 1)
;	spillPairReg hl
;	spillPairReg hl
	bit	7,a
	jr	NZ, 00118$
;main.c:419: yOverflow = yOverflow >> 5;
	ld	hl, #_yOverflow + 1
	sra	(hl)
	dec	hl
	rr	(hl)
	inc	hl
	sra	(hl)
	dec	hl
	rr	(hl)
	inc	hl
	sra	(hl)
	dec	hl
	rr	(hl)
	inc	hl
	sra	(hl)
	dec	hl
	rr	(hl)
	inc	hl
	sra	(hl)
	dec	hl
	rr	(hl)
	jr	00119$
00118$:
;main.c:422: yOverflow = -((-yOverflow) >> 5);
	xor	a, a
	ld	hl, #_yOverflow
	sub	a, (hl)
	inc	hl
	ld	e, a
	sbc	a, a
	sub	a, (hl)
	dec	hl
	ld	d, a
	sra	d
	rr	e
	sra	d
	rr	e
	sra	d
	rr	e
	sra	d
	rr	e
	sra	d
	rr	e
	xor	a, a
	sub	a, e
	ld	(hl+), a
	sbc	a, a
	sub	a, d
	ld	(hl), a
00119$:
;main.c:424: bgY += yOverflow;
	ld	a, (#_bgY)
	ld	hl, #_yOverflow
	add	a, (hl)
	ld	hl, #_bgY
	ld	(hl+), a
	ld	a, (hl)
	ld	hl, #_yOverflow + 1
	adc	a, (hl)
	ld	(#_bgY + 1),a
;main.c:425: playerY = limitedPlayerY;
	ld	hl, #_playerY
	ld	a, c
	ld	(hl+), a
;main.c:426: playerDrawY=playerY >> 5;
	ld	a, b
	ld	(hl-), a
	ld	a, (hl+)
	ld	c, a
	ld	b, (hl)
	srl	b
	rr	c
	srl	b
	rr	c
	srl	b
	rr	c
	srl	b
	rr	c
	srl	b
	rr	c
	ld	hl, #_playerDrawY
	ld	(hl), c
	jr	00122$
00121$:
;main.c:431: ySpeed = 0;
	ld	hl, #_ySpeed
	ld	(hl), #0x00
00122$:
;main.c:435: move_sprite(0, playerDrawX, playerDrawY);
	ld	hl, #_playerDrawY
	ld	c, (hl)
	ld	hl, #_playerDrawX
	ld	b, (hl)
;/home/milan/Documents/gameboy/gbdk/include/gb/gb.h:1520: OAM_item_t * itm = &shadow_OAM[nb];
	ld	hl, #_shadow_OAM
;/home/milan/Documents/gameboy/gbdk/include/gb/gb.h:1521: itm->y=y, itm->x=x;
	ld	a, c
	ld	(hl+), a
	ld	(hl), b
;main.c:438: if (bgX >= 256) {
	ld	hl, #_bgX
	ld	a, (hl+)
	ld	c, a
	ld	b, (hl)
	ld	a, b
	xor	a, #0x80
	sub	a, #0x81
	jr	C, 00124$
;main.c:439: bgX = bgX % 256;
	xor	a, a
	inc	a
	push	af
	push	bc
	call	__modsint
	add	sp, #4
	ld	hl, #_bgX
	ld	a, e
	ld	(hl+), a
	ld	(hl), d
00124$:
;main.c:441: if (bgX < 0) {
	ld	hl, #_bgX
	ld	a, (hl+)
	ld	c, a
	ld	b, (hl)
	bit	7, b
	jr	Z, 00126$
;main.c:442: bgX = 255 - (bgX % 256);
	xor	a, a
	inc	a
	push	af
	push	bc
	call	__modsint
	add	sp, #4
	ld	a, #0xff
	sub	a, e
	ld	c, a
	sbc	a, a
	sub	a, d
	ld	hl, #_bgX
	ld	(hl), c
	inc	hl
	ld	(hl), a
00126$:
;main.c:444: if (bgY >= 256) {
	ld	hl, #_bgY
	ld	a, (hl+)
	ld	c, a
	ld	b, (hl)
	ld	a, b
	xor	a, #0x80
	sub	a, #0x81
	jr	C, 00128$
;main.c:445: bgY = bgY % 256;
	xor	a, a
	inc	a
	push	af
	push	bc
	call	__modsint
	add	sp, #4
	ld	hl, #_bgY
	ld	a, e
	ld	(hl+), a
	ld	(hl), d
00128$:
;main.c:447: if (bgY < 0) {
	ld	hl, #_bgY
	ld	a, (hl+)
	ld	c, a
	ld	b, (hl)
	bit	7, b
	jr	Z, 00130$
;main.c:448: bgY = 255 - (bgY % 256);
	xor	a, a
	inc	a
	push	af
	push	bc
	call	__modsint
	add	sp, #4
	ld	a, #0xff
	sub	a, e
	ld	c, a
	sbc	a, a
	sub	a, d
	ld	hl, #_bgY
	ld	(hl), c
	inc	hl
	ld	(hl), a
00130$:
;main.c:451: move_bkg(bgX, bgY);
	ld	hl, #_bgY
	ld	c, (hl)
	ld	a, (#_bgX)
	ldh	(_SCX_REG + 0), a
;/home/milan/Documents/gameboy/gbdk/include/gb/gb.h:1080: SCX_REG=x, SCY_REG=y;
	ld	a, c
	ldh	(_SCY_REG + 0), a
;main.c:454: if (ySpeed > 0) ySpeed--;
	ld	hl, #_ySpeed
	ld	e, (hl)
	xor	a, a
	ld	d, a
	sub	a, (hl)
	bit	7, e
	jr	Z, 00301$
	bit	7, d
	jr	NZ, 00302$
	cp	a, a
	jr	00302$
00301$:
	bit	7, d
	jr	Z, 00302$
	scf
00302$:
	jr	NC, 00132$
	ld	hl, #_ySpeed
	dec	(hl)
00132$:
;main.c:455: if (ySpeed < 0) ySpeed++;
	ld	hl, #_ySpeed
	bit	7, (hl)
	jr	Z, 00134$
	inc	(hl)
00134$:
;main.c:456: if (xSpeed > 0) xSpeed--;
	ld	hl, #_xSpeed
	ld	e, (hl)
	xor	a, a
	ld	d, a
	sub	a, (hl)
	bit	7, e
	jr	Z, 00303$
	bit	7, d
	jr	NZ, 00304$
	cp	a, a
	jr	00304$
00303$:
	bit	7, d
	jr	Z, 00304$
	scf
00304$:
	jr	NC, 00136$
	ld	hl, #_xSpeed
	dec	(hl)
00136$:
;main.c:457: if (xSpeed < 0) xSpeed++;
	ld	hl, #_xSpeed
	bit	7, (hl)
	jr	Z, 00145$
	inc	(hl)
00145$:
;main.c:461: }
	inc	sp
	ret
;main.c:463: void takeDamage(int16_t amount) {
;	---------------------------------
; Function takeDamage
; ---------------------------------
_takeDamage::
	dec	sp
;main.c:464: if (amount > shield) {
	ld	a, (#_shield)
	ld	c, a
	rlca
	sbc	a, a
	ld	b, a
;main.c:466: hull -= (amount - shield);
	ldhl	sp,	#3
	ld	a, (hl)
	ldhl	sp,	#0
	ld	(hl), a
;main.c:464: if (amount > shield) {
	ldhl	sp,	#3
	ld	a, c
	sub	a, (hl)
	inc	hl
	ld	a, b
	sbc	a, (hl)
	ld	a, b
	ld	d, a
	bit	7, (hl)
	jr	Z, 00111$
	bit	7, d
	jr	NZ, 00112$
	cp	a, a
	jr	00112$
00111$:
	bit	7, d
	jr	Z, 00112$
	scf
00112$:
	jr	NC, 00102$
;main.c:465: shield = 0;
	ld	hl, #_shield
	ld	(hl), #0x00
;main.c:466: hull -= (amount - shield);
	ld	a, (#_hull)
	ldhl	sp,	#0
	sub	a, (hl)
	ld	(#_hull),a
	jr	00104$
00102$:
;main.c:469: shield -= amount;
	ld	a, (#_shield)
	ldhl	sp,	#0
	sub	a, (hl)
	ld	(#_shield),a
00104$:
;main.c:471: }
	inc	sp
	ret
;main.c:473: void checkCollision() {
;	---------------------------------
; Function checkCollision
; ---------------------------------
_checkCollision::
	add	sp, #-19
;main.c:480: struct Enemy *eptr = enemies;
;main.c:483: while (i < ENEMYCOUNT) {
	ld	hl, #_ENEMYCOUNT
	ld	c, (hl)
	xor	a, a
	sub	a, c
	jp	NC, 00123$
;main.c:484: eptr += enemyCollisionCount;
	ld	hl, #_enemyCollisionCount
	ld	l, (hl)
;	spillPairReg hl
;	spillPairReg hl
	ld	h, #0x00
;	spillPairReg hl
;	spillPairReg hl
	add	hl, hl
	add	hl, hl
	add	hl, hl
	add	hl, hl
	ld	de, #_enemies
	add	hl, de
	ld	c, l
	ld	b, h
;main.c:485: if (eptr->visible && eptr->alive) {
	ld	hl, #0x000a
	add	hl, bc
	ld	a, (hl)
	or	a, a
	jp	Z, 00108$
	ld	hl, #0x0009
	add	hl, bc
	push	hl
	ld	a, l
	ldhl	sp,	#11
	ld	(hl), a
	pop	hl
	ld	a, h
	ldhl	sp,	#10
	ld	(hl-), a
	ld	a, (hl+)
	ld	e, a
	ld	d, (hl)
	ld	a, (de)
	or	a, a
	jp	Z, 00108$
;main.c:487: if (eptr->x > playerDrawX - PLAYERSIZE && eptr->x - (8>>(eptr->spriteCount-1)) < playerDrawX) 
	ld	e, c
	ld	d, b
	ld	a, (de)
	ldhl	sp,	#15
	ld	(hl+), a
	inc	de
	ld	a, (de)
	ld	(hl), a
	ld	a, (#_playerDrawX)
	ldhl	sp,	#13
	ld	(hl+), a
	ld	(hl), #0x00
	ld	a, (#_PLAYERSIZE)
	ldhl	sp,	#7
	ld	(hl+), a
	ld	(hl), #0x00
	ldhl	sp,#13
	ld	a, (hl+)
	ld	e, a
	ld	d, (hl)
	ldhl	sp,	#7
	ld	a,	(hl+)
	ld	h, (hl)
	ld	l, a
	ld	a, e
	sub	a, l
	ld	e, a
	ld	a, d
	sbc	a, h
	ldhl	sp,	#18
	ld	(hl-), a
	ld	(hl), e
	ldhl	sp,	#17
	ld	e, l
	ld	d, h
	ldhl	sp,	#15
	ld	a, (de)
	inc	de
	sub	a, (hl)
	inc	hl
	ld	a, (de)
	sbc	a, (hl)
	ld	a, (de)
	ld	d, a
	ld	e, (hl)
	bit	7, e
	jr	Z, 00208$
	bit	7, d
	jr	NZ, 00209$
	cp	a, a
	jr	00209$
00208$:
	bit	7, d
	jr	Z, 00209$
	scf
00209$:
	jp	NC, 00108$
	ld	hl, #0x0008
	add	hl, bc
	ld	e, (hl)
	dec	e
	ldhl	sp,	#11
	ld	a, #0x08
	ld	(hl+), a
	xor	a, a
	ld	(hl), a
	inc	e
	jr	00211$
00210$:
	ldhl	sp,	#12
	sra	(hl)
	dec	hl
	rr	(hl)
00211$:
	dec	e
	jr	NZ, 00210$
	ldhl	sp,#15
	ld	a, (hl+)
	ld	e, a
	ld	d, (hl)
	ldhl	sp,	#11
	ld	a,	(hl+)
	ld	h, (hl)
	ld	l, a
	ld	a, e
	sub	a, l
	ld	e, a
	ld	a, d
	sbc	a, h
	ldhl	sp,	#18
	ld	(hl-), a
	ld	(hl), e
	ldhl	sp,	#17
	ld	e, l
	ld	d, h
	ldhl	sp,	#13
	ld	a, (de)
	inc	de
	sub	a, (hl)
	inc	hl
	ld	a, (de)
	sbc	a, (hl)
	ld	a, (de)
	ld	d, a
	ld	e, (hl)
	bit	7, e
	jr	Z, 00212$
	bit	7, d
	jr	NZ, 00213$
	cp	a, a
	jr	00213$
00212$:
	bit	7, d
	jr	Z, 00213$
	scf
00213$:
	jp	NC, 00108$
;main.c:489: if (eptr->y > playerDrawY - PLAYERSIZE && eptr->y -(8>>(eptr->spriteCount-1)) < playerDrawY) {
	ld	l, c
;	spillPairReg hl
;	spillPairReg hl
	ld	h, b
;	spillPairReg hl
;	spillPairReg hl
	inc	hl
	inc	hl
	ld	e, l
	ld	d, h
	ld	a, (de)
	ldhl	sp,	#17
	ld	(hl+), a
	inc	de
	ld	a, (de)
	ld	(hl), a
	ld	a, (#_playerDrawY)
	ldhl	sp,	#13
	ld	(hl+), a
	xor	a, a
	ld	(hl-), a
	ld	a, (hl+)
	ld	e, a
	ld	d, (hl)
	ldhl	sp,	#7
	ld	a,	(hl+)
	ld	h, (hl)
	ld	l, a
	ld	a, e
	sub	a, l
	ld	e, a
	ld	a, d
	sbc	a, h
	ldhl	sp,	#16
	ld	(hl-), a
	ld	(hl), e
	ldhl	sp,	#15
	ld	e, l
	ld	d, h
	ldhl	sp,	#17
	ld	a, (de)
	inc	de
	sub	a, (hl)
	inc	hl
	ld	a, (de)
	sbc	a, (hl)
	ld	a, (de)
	ld	d, a
	ld	e, (hl)
	bit	7, e
	jr	Z, 00214$
	bit	7, d
	jr	NZ, 00215$
	cp	a, a
	jr	00215$
00214$:
	bit	7, d
	jr	Z, 00215$
	scf
00215$:
	jr	NC, 00108$
	ldhl	sp,#17
	ld	a, (hl+)
	ld	e, a
	ld	d, (hl)
	ldhl	sp,	#11
	ld	a,	(hl+)
	ld	h, (hl)
	ld	l, a
	ld	a, e
	sub	a, l
	ld	e, a
	ld	a, d
	sbc	a, h
	ldhl	sp,	#16
	ld	(hl-), a
	ld	(hl), e
	ldhl	sp,	#15
	ld	e, l
	ld	d, h
	ldhl	sp,	#13
	ld	a, (de)
	inc	de
	sub	a, (hl)
	inc	hl
	ld	a, (de)
	sbc	a, (hl)
	ld	a, (de)
	ld	d, a
	ld	e, (hl)
	bit	7, e
	jr	Z, 00216$
	bit	7, d
	jr	NZ, 00217$
	cp	a, a
	jr	00217$
00216$:
	bit	7, d
	jr	Z, 00217$
	scf
00217$:
	jr	NC, 00108$
;/home/milan/Documents/gameboy/gbdk/include/gb/gb.h:1447: shadow_OAM[nb].tile=tile;
	ld	hl, #(_shadow_OAM + 42)
	ld	(hl), #0x7f
;main.c:491: eptr->alive = 0;
	ldhl	sp,	#9
	ld	a,	(hl+)
	ld	h, (hl)
	ld	l, a
	ld	(hl), #0x00
;main.c:492: takeDamage(eptr->damage);
	ld	hl, #0x000b
	add	hl, bc
	ld	e, (hl)
	ld	d, #0x00
	push	bc
	push	de
	call	_takeDamage
	pop	hl
	xor	a, a
	push	af
	inc	sp
	call	_initEnemies
	inc	sp
	pop	bc
00108$:
;main.c:503: struct Projectile *pptr = projectiles;
	ldhl	sp,	#16
	ld	a, #<(_projectiles)
	ld	(hl+), a
	ld	(hl), #>(_projectiles)
;main.c:505: while (j < PROJECTILECOUNT) {
	ld	hl, #0x0002
	add	hl, bc
	push	hl
	ld	a, l
	ldhl	sp,	#4
	ld	(hl), a
	pop	hl
	ld	a, h
	ldhl	sp,	#3
	ld	(hl), a
	ld	hl, #0x0008
	add	hl, bc
	push	hl
	ld	a, l
	ldhl	sp,	#6
	ld	(hl), a
	pop	hl
	ld	a, h
	ldhl	sp,	#5
	ld	(hl), a
	ldhl	sp,	#18
	ld	(hl), #0x00
00118$:
	ld	hl, #_PROJECTILECOUNT
	ld	e, (hl)
	ldhl	sp,	#18
	ld	a, (hl)
	sub	a, e
	jp	NC, 00123$
;main.c:506: if (pptr->active) {
	dec	hl
	dec	hl
	ld	a, (hl+)
	ld	e, a
	ld	d, (hl)
	ld	hl, #0x0008
	add	hl, de
	push	hl
	ld	a, l
	ldhl	sp,	#8
	ld	(hl), a
	pop	hl
	ld	a, h
	ldhl	sp,	#7
	ld	(hl-), a
	ld	a, (hl+)
	ld	e, a
	ld	d, (hl)
	ld	a, (de)
	or	a, a
	jp	Z, 00117$
;main.c:507: if (eptr->x > pptr->x - 8 && eptr->x - (8>>(eptr->spriteCount-1)) < pptr->x) {
	ld	e, c
	ld	d, b
	ld	a, (de)
	ldhl	sp,	#10
	ld	(hl+), a
	inc	de
	ld	a, (de)
	ld	(hl), a
	ldhl	sp,#16
	ld	a, (hl+)
	ld	e, a
	ld	d, (hl)
	ld	a, (de)
	ldhl	sp,	#12
	ld	(hl+), a
	inc	de
	ld	a, (de)
	ld	(hl-), a
	ld	a, (hl)
	ldhl	sp,	#8
	ld	(hl), a
	ldhl	sp,	#13
	ld	a, (hl)
	ldhl	sp,	#9
	ld	(hl-), a
	ld	a, (hl+)
	ld	e, a
	ld	d, (hl)
	ld	hl, #0x0008
	ld	a, e
	sub	a, l
	ld	e, a
	ld	a, d
	sbc	a, h
	ldhl	sp,	#15
	ld	(hl-), a
	ld	(hl), e
	ldhl	sp,	#14
	ld	e, l
	ld	d, h
	ldhl	sp,	#10
	ld	a, (de)
	inc	de
	sub	a, (hl)
	inc	hl
	ld	a, (de)
	sbc	a, (hl)
	ld	a, (de)
	ld	d, a
	bit	7, (hl)
	jr	Z, 00218$
	bit	7, d
	jr	NZ, 00219$
	cp	a, a
	jr	00219$
00218$:
	bit	7, d
	jr	Z, 00219$
	scf
00219$:
	jp	NC, 00117$
	ldhl	sp,#4
	ld	a, (hl+)
	ld	e, a
	ld	d, (hl)
	ld	a, (de)
	ld	e, a
	dec	e
	ldhl	sp,	#8
	ld	a, #0x08
	ld	(hl+), a
	xor	a, a
	ld	(hl), a
	inc	e
	jr	00221$
00220$:
	ldhl	sp,	#9
	sra	(hl)
	dec	hl
	rr	(hl)
00221$:
	dec	e
	jr	NZ, 00220$
	ldhl	sp,#10
	ld	a, (hl+)
	ld	e, a
	ld	d, (hl)
	ldhl	sp,	#8
	ld	a,	(hl+)
	ld	h, (hl)
	ld	l, a
	ld	a, e
	sub	a, l
	ld	e, a
	ld	a, d
	sbc	a, h
	ldhl	sp,	#15
	ld	(hl-), a
	ld	(hl), e
	ldhl	sp,	#14
	ld	e, l
	ld	d, h
	ldhl	sp,	#12
	ld	a, (de)
	inc	de
	sub	a, (hl)
	inc	hl
	ld	a, (de)
	sbc	a, (hl)
	ld	a, (de)
	ld	d, a
	bit	7, (hl)
	jr	Z, 00222$
	bit	7, d
	jr	NZ, 00223$
	cp	a, a
	jr	00223$
00222$:
	bit	7, d
	jr	Z, 00223$
	scf
00223$:
	jp	NC, 00117$
;main.c:508: if (eptr->y > pptr->y - 8 && eptr->y -(8>>(eptr->spriteCount-1)) < pptr->y ) {
	ldhl	sp,#2
	ld	a, (hl+)
	ld	e, a
	ld	d, (hl)
	ld	a, (de)
	ldhl	sp,	#14
	ld	(hl+), a
	inc	de
	ld	a, (de)
	ld	(hl+), a
	ld	a, (hl+)
	ld	h, (hl)
;	spillPairReg hl
;	spillPairReg hl
	ld	l, a
;	spillPairReg hl
;	spillPairReg hl
	inc	hl
	inc	hl
	ld	e, l
	ld	d, h
	ld	a, (de)
	ldhl	sp,	#10
	ld	(hl+), a
	inc	de
	ld	a, (de)
	ld	(hl), a
	ldhl	sp,	#10
	ld	a, (hl)
	ldhl	sp,	#0
	ld	(hl), a
	ldhl	sp,	#11
	ld	a, (hl)
	ldhl	sp,	#1
	ld	(hl), a
	pop	de
	push	de
	ld	hl, #0x0008
	ld	a, e
	sub	a, l
	ld	e, a
	ld	a, d
	sbc	a, h
	ldhl	sp,	#13
	ld	(hl-), a
	ld	(hl), e
	ldhl	sp,	#12
	ld	e, l
	ld	d, h
	ldhl	sp,	#14
	ld	a, (de)
	inc	de
	sub	a, (hl)
	inc	hl
	ld	a, (de)
	sbc	a, (hl)
	ld	a, (de)
	ld	d, a
	bit	7, (hl)
	jr	Z, 00224$
	bit	7, d
	jr	NZ, 00225$
	cp	a, a
	jr	00225$
00224$:
	bit	7, d
	jr	Z, 00225$
	scf
00225$:
	jr	NC, 00117$
	ldhl	sp,#14
	ld	a, (hl+)
	ld	e, a
	ld	d, (hl)
	ldhl	sp,	#8
	ld	a,	(hl+)
	ld	h, (hl)
	ld	l, a
	ld	a, e
	sub	a, l
	ld	e, a
	ld	a, d
	sbc	a, h
	ldhl	sp,	#13
	ld	(hl-), a
	ld	(hl), e
	ld	a, (hl+)
	inc	hl
	ld	(hl-), a
	ld	a, (hl+)
	inc	hl
	ld	(hl), a
	ldhl	sp,	#14
	ld	e, l
	ld	d, h
	ldhl	sp,	#10
	ld	a, (de)
	inc	de
	sub	a, (hl)
	inc	hl
	ld	a, (de)
	sbc	a, (hl)
	ld	a, (de)
	ld	d, a
	bit	7, (hl)
	jr	Z, 00226$
	bit	7, d
	jr	NZ, 00227$
	cp	a, a
	jr	00227$
00226$:
	bit	7, d
	jr	Z, 00227$
	scf
00227$:
	jr	NC, 00117$
;/home/milan/Documents/gameboy/gbdk/include/gb/gb.h:1447: shadow_OAM[nb].tile=tile;
	ld	hl, #(_shadow_OAM + 42)
	ld	(hl), #0x7f
;main.c:510: eptr->alive = 0;
	ld	hl, #0x0009
	add	hl, bc
	ld	(hl), #0x00
;main.c:511: initEnemies(0);
	push	bc
	xor	a, a
	push	af
	inc	sp
	call	_initEnemies
	inc	sp
	pop	bc
;main.c:512: set_sprite_tile(20+j, 0x7f);
	ldhl	sp,	#18
	ld	a, (hl)
	add	a, #0x14
	ld	e, a
;/home/milan/Documents/gameboy/gbdk/include/gb/gb.h:1447: shadow_OAM[nb].tile=tile;
	ld	h, #0x00
;	spillPairReg hl
;	spillPairReg hl
	ld	l, e
	add	hl, hl
	add	hl, hl
	ld	de, #_shadow_OAM
	add	hl, de
	inc	hl
	inc	hl
	ld	(hl), #0x7f
;main.c:513: pptr->active = 0;
	ldhl	sp,	#6
	ld	a,	(hl+)
	ld	h, (hl)
	ld	l, a
	ld	(hl), #0x00
00117$:
;main.c:517: j++;
	ldhl	sp,	#18
	inc	(hl)
;main.c:518: pptr++;
	dec	hl
	dec	hl
	ld	a, (hl+)
	ld	e, a
	ld	d, (hl)
	ld	hl, #0x000b
	add	hl, de
	push	hl
	ld	a, l
	ldhl	sp,	#18
	ld	(hl), a
	pop	hl
	ld	a, h
	ldhl	sp,	#17
	ld	(hl), a
	jp	00118$
;main.c:525: break;
00123$:
;main.c:528: if (enemyCollisionCount == 0) {
	ld	a, (#_enemyCollisionCount)
	or	a, a
	jr	NZ, 00125$
;main.c:529: enemyCollisionCount = ENEMYCOUNT - 1;
	ld	a, (#_ENEMYCOUNT)
	dec	a
	ld	(#_enemyCollisionCount),a
	jr	00130$
00125$:
;main.c:532: enemyCollisionCount--;
	ld	hl, #_enemyCollisionCount
	dec	(hl)
00130$:
;main.c:581: }
	add	sp, #19
	ret
;main.c:592: void fire() {
;	---------------------------------
; Function fire
; ---------------------------------
_fire::
	dec	sp
;main.c:594: oldestProjectile += 1;
	ld	hl, #_oldestProjectile
	inc	(hl)
	ld	a, (hl)
;main.c:595: if (oldestProjectile >= PROJECTILECOUNT) {
	ld	hl, #_PROJECTILECOUNT
	ld	c, (hl)
	ld	hl, #_oldestProjectile
	ld	a, (hl)
	sub	a, c
	jr	C, 00102$
;main.c:596: oldestProjectile = 0;
	ld	(hl), #0x00
00102$:
;main.c:599: projectiles[oldestProjectile] = singleGun;
	ld	hl, #_oldestProjectile
	ld	c, (hl)
	ld	b, #0x00
	ld	l, c
	ld	h, b
	add	hl, hl
	add	hl, hl
	add	hl, bc
	add	hl, hl
	add	hl, bc
	ld	bc,#_projectiles
	add	hl,bc
	ld	de, #0x000b
	push	de
	ld	de, #_singleGun
	push	de
	push	hl
	call	___memcpy
	add	sp, #6
;main.c:600: projectiles[oldestProjectile].x = playerDrawX;
	ld	hl, #_oldestProjectile
	ld	c, (hl)
	ld	b, #0x00
	ld	l, c
	ld	h, b
	add	hl, hl
	add	hl, hl
	add	hl, bc
	add	hl, hl
	add	hl, bc
	ld	bc,#_projectiles
	add	hl,bc
	push	hl
	ld	a, (#_playerDrawX)
	pop	hl
	ld	c, #0x00
	ld	(hl+), a
	ld	(hl), c
;main.c:601: projectiles[oldestProjectile].y = playerDrawY;
	ld	hl, #_oldestProjectile
	ld	c, (hl)
	ld	b, #0x00
	ld	l, c
	ld	h, b
	add	hl, hl
	add	hl, hl
	add	hl, bc
	add	hl, hl
	add	hl, bc
	ld	bc,#_projectiles
	add	hl,bc
	inc	hl
	inc	hl
	push	hl
	ld	a, (#_playerDrawY)
	pop	hl
	ld	c, #0x00
	ld	(hl+), a
	ld	(hl), c
;main.c:602: projectiles[oldestProjectile].xSpeed = xDir * projectiles[oldestProjectile].speed;
	ld	hl, #_oldestProjectile
	ld	c, (hl)
	ld	b, #0x00
	ld	l, c
	ld	h, b
	add	hl, hl
	add	hl, hl
	add	hl, bc
	add	hl, hl
	add	hl, bc
	ld	bc,#_projectiles
	add	hl,bc
	ld	e, l
	ld	d, h
	ld	hl, #0x0004
	add	hl, de
	ld	c, l
	ld	b, h
	ld	hl, #0x0006
	add	hl, de
	ld	a, (hl)
	push	bc
	push	af
	inc	sp
	ld	a, (#_xDir)
	push	af
	inc	sp
	call	__muluschar
	pop	hl
	ld	a, e
	pop	bc
	ld	(bc), a
;main.c:603: projectiles[oldestProjectile].ySpeed = yDir * projectiles[oldestProjectile].speed;
	ld	hl, #_oldestProjectile
	ld	c, (hl)
	ld	b, #0x00
	ld	l, c
	ld	h, b
	add	hl, hl
	add	hl, hl
	add	hl, bc
	add	hl, hl
	add	hl, bc
	ld	bc,#_projectiles
	add	hl,bc
	ld	e, l
	ld	d, h
	ld	hl, #0x0005
	add	hl, de
	ld	c, l
	ld	b, h
	ld	hl, #0x0006
	add	hl, de
	ld	a, (hl)
	push	bc
	push	af
	inc	sp
	ld	a, (#_yDir)
	push	af
	inc	sp
	call	__muluschar
	pop	hl
	ld	a, e
	pop	bc
	ld	(bc), a
;main.c:594: oldestProjectile += 1;
	ld	a, (#_oldestProjectile)
	ldhl	sp,	#0
	ld	(hl), a
;main.c:599: projectiles[oldestProjectile] = singleGun;
	ld	hl, #_oldestProjectile
	ld	c, (hl)
	ld	b, #0x00
	ld	l, c
	ld	h, b
	add	hl, hl
	add	hl, hl
	add	hl, bc
	add	hl, hl
	add	hl, bc
;main.c:606: set_sprite_tile(20+oldestProjectile, projectiles[oldestProjectile].type);
	ld	bc,#_projectiles
	add	hl,bc
	ld	e, l
	ld	d, h
	ldhl	sp,	#0
	ld	a, (hl)
	add	a, #0x14
	ld	c, a
	ld	hl, #0x000a
	add	hl, de
	ld	e, (hl)
;main.c:605: if (yDir != 0 && xDir == 0) {
	ld	a, (#_yDir)
	or	a, a
	jr	Z, 00129$
	ld	a, (#_xDir)
	or	a, a
	jr	NZ, 00129$
;main.c:606: set_sprite_tile(20+oldestProjectile, projectiles[oldestProjectile].type);
;/home/milan/Documents/gameboy/gbdk/include/gb/gb.h:1447: shadow_OAM[nb].tile=tile;
	ld	l, c
;	spillPairReg hl
;	spillPairReg hl
	ld	h, #0x00
;	spillPairReg hl
;	spillPairReg hl
	add	hl, hl
	add	hl, hl
	ld	bc, #_shadow_OAM
	add	hl, bc
	inc	hl
	inc	hl
	ld	(hl), e
;main.c:594: oldestProjectile += 1;
	ld	a, (#_oldestProjectile)
;main.c:606: set_sprite_tile(20+oldestProjectile, projectiles[oldestProjectile].type);
	add	a, #0x14
	ld	e, a
;main.c:607: if (yDir == 1) {
	ld	a, (#_yDir)
	dec	a
	jr	NZ, 00104$
;main.c:608: set_sprite_prop(20+oldestProjectile, S_FLIPY); 
;/home/milan/Documents/gameboy/gbdk/include/gb/gb.h:1493: shadow_OAM[nb].prop=prop;
	ld	bc, #_shadow_OAM+0
	ld	l, e
;	spillPairReg hl
;	spillPairReg hl
	ld	h, #0x00
;	spillPairReg hl
;	spillPairReg hl
	add	hl, hl
	add	hl, hl
	add	hl, bc
	inc	hl
	inc	hl
	inc	hl
	ld	(hl), #0x40
;main.c:608: set_sprite_prop(20+oldestProjectile, S_FLIPY); 
	jp	00130$
00104$:
;main.c:613: set_sprite_prop(20+oldestProjectile, 0); 
;/home/milan/Documents/gameboy/gbdk/include/gb/gb.h:1493: shadow_OAM[nb].prop=prop;
	ld	bc, #_shadow_OAM+0
	ld	l, e
;	spillPairReg hl
;	spillPairReg hl
	ld	h, #0x00
;	spillPairReg hl
;	spillPairReg hl
	add	hl, hl
	add	hl, hl
	add	hl, bc
	inc	hl
	inc	hl
	inc	hl
	ld	(hl), #0x00
;main.c:613: set_sprite_prop(20+oldestProjectile, 0); 
	jp	00130$
00129$:
;main.c:618: set_sprite_tile(20+oldestProjectile, projectiles[oldestProjectile].type+1);
;main.c:617: else if (xDir != 0 && yDir == 0) {
	ld	a, (#_xDir)
	or	a, a
	jr	Z, 00125$
	ld	a, (#_yDir)
	or	a, a
	jr	NZ, 00125$
;main.c:618: set_sprite_tile(20+oldestProjectile, projectiles[oldestProjectile].type+1);
	inc	e
;/home/milan/Documents/gameboy/gbdk/include/gb/gb.h:1447: shadow_OAM[nb].tile=tile;
	ld	l, c
;	spillPairReg hl
;	spillPairReg hl
	ld	h, #0x00
;	spillPairReg hl
;	spillPairReg hl
	add	hl, hl
	add	hl, hl
	ld	bc, #_shadow_OAM
	add	hl, bc
	inc	hl
	inc	hl
	ld	(hl), e
;main.c:594: oldestProjectile += 1;
	ld	a, (#_oldestProjectile)
;main.c:606: set_sprite_tile(20+oldestProjectile, projectiles[oldestProjectile].type);
	add	a, #0x14
	ld	e, a
;main.c:619: if (xDir == 1) {
	ld	a, (#_xDir)
	dec	a
	jr	NZ, 00107$
;main.c:620: set_sprite_prop(20+oldestProjectile, 0); 
;/home/milan/Documents/gameboy/gbdk/include/gb/gb.h:1493: shadow_OAM[nb].prop=prop;
	ld	bc, #_shadow_OAM+0
	ld	l, e
;	spillPairReg hl
;	spillPairReg hl
	ld	h, #0x00
;	spillPairReg hl
;	spillPairReg hl
	add	hl, hl
	add	hl, hl
	add	hl, bc
	inc	hl
	inc	hl
	inc	hl
	ld	(hl), #0x00
;main.c:620: set_sprite_prop(20+oldestProjectile, 0); 
	jp	00130$
00107$:
;main.c:623: set_sprite_prop(20+oldestProjectile, S_FLIPX); 
;/home/milan/Documents/gameboy/gbdk/include/gb/gb.h:1493: shadow_OAM[nb].prop=prop;
	ld	bc, #_shadow_OAM+0
	ld	l, e
;	spillPairReg hl
;	spillPairReg hl
	ld	h, #0x00
;	spillPairReg hl
;	spillPairReg hl
	add	hl, hl
	add	hl, hl
	add	hl, bc
	inc	hl
	inc	hl
	inc	hl
	ld	(hl), #0x20
;main.c:623: set_sprite_prop(20+oldestProjectile, S_FLIPX); 
	jp	00130$
00125$:
;main.c:627: set_sprite_tile(20+oldestProjectile, projectiles[oldestProjectile].type+2);
	inc	e
	inc	e
;/home/milan/Documents/gameboy/gbdk/include/gb/gb.h:1447: shadow_OAM[nb].tile=tile;
	ld	l, c
;	spillPairReg hl
;	spillPairReg hl
	ld	h, #0x00
;	spillPairReg hl
;	spillPairReg hl
	add	hl, hl
	add	hl, hl
	ld	bc, #_shadow_OAM
	add	hl, bc
	inc	hl
	inc	hl
	ld	(hl), e
;main.c:628: if (xDir == 1 && yDir == -1) {
	ld	a, (#_xDir)
	dec	a
	ld	a, #0x01
	jr	Z, 00226$
	xor	a, a
00226$:
	ld	c, a
;main.c:594: oldestProjectile += 1;
	ld	hl, #_oldestProjectile
	ld	b, (hl)
;main.c:628: if (xDir == 1 && yDir == -1) {
	ld	a, (#_yDir)
	inc	a
	ld	a, #0x01
	jr	Z, 00228$
	xor	a, a
00228$:
	ldhl	sp,	#0
	ld	(hl), a
;main.c:606: set_sprite_tile(20+oldestProjectile, projectiles[oldestProjectile].type);
	ld	a, b
	add	a, #0x14
	ld	e, a
;main.c:628: if (xDir == 1 && yDir == -1) {
	ld	a, c
	or	a, a
	jr	Z, 00121$
	ld	a, (hl)
	or	a, a
	jr	Z, 00121$
;main.c:629: set_sprite_prop(20+oldestProjectile, 0); //default is right & up
;/home/milan/Documents/gameboy/gbdk/include/gb/gb.h:1493: shadow_OAM[nb].prop=prop;
	ld	d, #0x00
	ld	l, e
	ld	h, d
	add	hl, hl
	add	hl, hl
	ld	de, #_shadow_OAM
	add	hl, de
	inc	hl
	inc	hl
	inc	hl
	ld	(hl), #0x00
;main.c:630: printf("1");
	ld	de, #___str_0
	push	de
	call	_printf
	pop	hl
	jr	00130$
00121$:
;main.c:607: if (yDir == 1) {
	ld	hl, #_yDir
	ld	a, (hl)
	dec	a
	ld	a, #0x01
	jr	Z, 00230$
	xor	a, a
00230$:
	ld	l, a
;	spillPairReg hl
;	spillPairReg hl
;main.c:632: else if (xDir == 1 && yDir == 1) {
	ld	a, c
	or	a, a
	jr	Z, 00117$
	ld	a, l
	or	a, a
	jr	Z, 00117$
;main.c:633: set_sprite_prop(20+oldestProjectile, S_FLIPY); 
;/home/milan/Documents/gameboy/gbdk/include/gb/gb.h:1493: shadow_OAM[nb].prop=prop;
	ld	l, e
;	spillPairReg hl
;	spillPairReg hl
	ld	h, #0x00
;	spillPairReg hl
;	spillPairReg hl
	add	hl, hl
	add	hl, hl
	ld	de, #_shadow_OAM
	add	hl, de
	inc	hl
	inc	hl
	inc	hl
	ld	(hl), #0x40
;main.c:635: printf("2");
	ld	de, #___str_1
	push	de
	call	_printf
	pop	hl
	jr	00130$
00117$:
;main.c:638: else if (xDir == -1 && yDir == 1) {
	push	hl
	ld	a, (#_xDir)
	inc	a
	pop	hl
	ld	a, #0x01
	jr	Z, 00232$
	xor	a, a
00232$:
	or	a, a
	jr	Z, 00113$
	inc	l
	dec	l
	jr	Z, 00113$
;main.c:639: set_sprite_prop(20+oldestProjectile, S_FLIPY | S_FLIPX); 
;/home/milan/Documents/gameboy/gbdk/include/gb/gb.h:1493: shadow_OAM[nb].prop=prop;
	ld	bc, #_shadow_OAM+0
	ld	l, e
;	spillPairReg hl
;	spillPairReg hl
	ld	h, #0x00
;	spillPairReg hl
;	spillPairReg hl
	add	hl, hl
	add	hl, hl
	add	hl, bc
	inc	hl
	inc	hl
	inc	hl
	ld	(hl), #0x60
;main.c:640: printf("3");
	ld	de, #___str_2
	push	de
	call	_printf
	pop	hl
	jr	00130$
00113$:
;main.c:643: else if (xDir == -1 && yDir == -1) {
	or	a, a
	jr	Z, 00130$
	ldhl	sp,	#0
	ld	a, (hl)
	or	a, a
	jr	Z, 00130$
;main.c:644: set_sprite_prop(20+oldestProjectile, S_FLIPX); 
;/home/milan/Documents/gameboy/gbdk/include/gb/gb.h:1493: shadow_OAM[nb].prop=prop;
	ld	bc, #_shadow_OAM+0
	ld	l, e
;	spillPairReg hl
;	spillPairReg hl
	ld	h, #0x00
;	spillPairReg hl
;	spillPairReg hl
	add	hl, hl
	add	hl, hl
	add	hl, bc
	inc	hl
	inc	hl
	inc	hl
	ld	(hl), #0x20
;main.c:645: printf("4");
	ld	de, #___str_3
	push	de
	call	_printf
	pop	hl
00130$:
;main.c:650: move_sprite(20+oldestProjectile, playerDrawX, playerDrawY);
	ld	hl, #_playerDrawY
	ld	b, (hl)
	ld	hl, #_playerDrawX
	ld	c, (hl)
	ld	a, (#_oldestProjectile)
	add	a, #0x14
;/home/milan/Documents/gameboy/gbdk/include/gb/gb.h:1520: OAM_item_t * itm = &shadow_OAM[nb];
	ld	l, a
;	spillPairReg hl
;	spillPairReg hl
	ld	h, #0x00
;	spillPairReg hl
;	spillPairReg hl
	add	hl, hl
	add	hl, hl
	ld	de, #_shadow_OAM
	add	hl, de
;/home/milan/Documents/gameboy/gbdk/include/gb/gb.h:1521: itm->y=y, itm->x=x;
	ld	a, b
	ld	(hl+), a
	ld	(hl), c
;main.c:651: fireCooldown = projectiles[oldestProjectile].delay;
	ld	hl, #_oldestProjectile
	ld	c, (hl)
	ld	b, #0x00
	ld	l, c
	ld	h, b
	add	hl, hl
	add	hl, hl
	add	hl, bc
	add	hl, hl
	add	hl, bc
	ld	bc,#_projectiles
	add	hl,bc
	ld	bc, #0x0009
	add	hl, bc
	ld	a, (hl)
	ld	(#_fireCooldown),a
;main.c:653: }
	inc	sp
	ret
___str_0:
	.ascii "1"
	.db 0x00
___str_1:
	.ascii "2"
	.db 0x00
___str_2:
	.ascii "3"
	.db 0x00
___str_3:
	.ascii "4"
	.db 0x00
;main.c:656: void moveProjectiles() {
;	---------------------------------
; Function moveProjectiles
; ---------------------------------
_moveProjectiles::
	add	sp, #-9
;main.c:657: for (uint8_t i = 0; i < PROJECTILECOUNT; ++i) {
	ldhl	sp,	#8
	ld	(hl), #0x00
00112$:
	ld	hl, #_PROJECTILECOUNT
	ld	c, (hl)
	ldhl	sp,	#8
	ld	a, (hl)
	sub	a, c
	jp	NC, 00114$
;main.c:658: projectiles[i].x -= xOverflow;
	ld	c, (hl)
	ld	b, #0x00
	ld	l, c
	ld	h, b
	add	hl, hl
	add	hl, hl
	add	hl, bc
	add	hl, hl
	add	hl, bc
	ld	bc,#_projectiles
	add	hl,bc
	inc	sp
	inc	sp
	ld	e, l
	ld	d, h
	push	de
	ld	a, (de)
	ld	c, a
	inc	de
	ld	a, (de)
	ld	b, a
	ld	a, c
	ld	hl, #_xOverflow
	sub	a, (hl)
	inc	hl
	ld	c, a
	ld	a, b
	sbc	a, (hl)
	ld	b, a
	pop	hl
	push	hl
	ld	a, c
	ld	(hl+), a
	ld	(hl), b
;main.c:659: projectiles[i].y -= yOverflow;
	pop	de
	push	de
	ld	hl, #0x0002
	add	hl, de
	push	hl
	ld	a, l
	ldhl	sp,	#4
	ld	(hl), a
	pop	hl
	ld	a, h
	ldhl	sp,	#3
	ld	(hl-), a
	ld	a, (hl+)
	ld	e, a
	ld	d, (hl)
	ld	a, (de)
	ld	c, a
	inc	de
	ld	a, (de)
	ld	b, a
	ld	a, c
	ld	hl, #_yOverflow
	sub	a, (hl)
	inc	hl
	ld	c, a
	ld	a, b
	sbc	a, (hl)
	ld	b, a
	ldhl	sp,	#2
	ld	a,	(hl+)
	ld	h, (hl)
	ld	l, a
	ld	a, c
	ld	(hl+), a
	ld	(hl), b
;main.c:661: if (projectiles[i].active) {
	pop	de
	push	de
	ld	hl, #0x0008
	add	hl, de
	ld	c, l
	ld	b, h
	ld	a, (bc)
	or	a, a
	jp	Z, 00113$
;main.c:662: int16_t newY = projectiles[i].y + projectiles[i].ySpeed;
	ldhl	sp,#2
	ld	a, (hl+)
	ld	e, a
	ld	d, (hl)
	ld	a, (de)
	ld	c, a
	inc	de
	ld	a, (de)
	ld	b, a
	pop	de
	push	de
	ld	hl, #0x0005
	add	hl, de
	ld	e, l
	ld	d, h
	ld	a, (de)
	ld	l, a
;	spillPairReg hl
;	spillPairReg hl
	rlca
	sbc	a, a
	ld	h, a
;	spillPairReg hl
;	spillPairReg hl
	add	hl, bc
	ld	c, l
	ld	b, h
	ldhl	sp,	#4
	ld	a, c
	ld	(hl+), a
	ld	(hl), b
;main.c:663: int16_t newX = projectiles[i].x + projectiles[i].xSpeed;
	pop	de
	push	de
	ld	a, (de)
	ld	c, a
	inc	de
	ld	a, (de)
	ld	b, a
	pop	de
	push	de
	ld	hl, #0x0004
	add	hl, de
	ld	e, l
	ld	d, h
	ld	a, (de)
	ld	l, a
;	spillPairReg hl
;	spillPairReg hl
	rlca
	sbc	a, a
	ld	h, a
;	spillPairReg hl
;	spillPairReg hl
	add	hl, bc
	ld	c, l
	ld	b, h
;main.c:665: move_sprite(20+i, newX, newY);
	ldhl	sp,	#4
	ld	a, (hl+)
	inc	hl
	ld	e, a
	ld	a, c
	ld	(hl+), a
	inc	hl
	ld	a, (hl-)
	add	a, #0x14
	ld	(hl), a
	ld	d, (hl)
;/home/milan/Documents/gameboy/gbdk/include/gb/gb.h:1520: OAM_item_t * itm = &shadow_OAM[nb];
	ld	h, #0x00
;	spillPairReg hl
;	spillPairReg hl
	ld	l, d
	add	hl, hl
	add	hl, hl
	push	de
	ld	de, #_shadow_OAM
	add	hl, de
	pop	de
;/home/milan/Documents/gameboy/gbdk/include/gb/gb.h:1521: itm->y=y, itm->x=x;
	ld	a, e
	ld	(hl+), a
	ld	e, l
	ld	d, h
	ldhl	sp,	#6
	ld	a, (hl)
	ld	(de), a
;main.c:666: projectiles[i].y = newY;
	ldhl	sp,#2
	ld	a, (hl+)
	ld	e, a
	ld	a, (hl+)
	ld	d, a
	ld	a, (hl+)
	ld	(de), a
	inc	de
	ld	a, (hl)
	ld	(de), a
;main.c:667: projectiles[i].x = newX;
	pop	hl
	push	hl
	ld	a, c
	ld	(hl+), a
	ld	(hl), b
;main.c:672: if (projectiles[i].x < 0 || projectiles[i].x > 170 || projectiles[i].y < 0 || projectiles[i].y > 154) {
	pop	de
	push	de
	ld	a, (de)
	ld	l, a
;	spillPairReg hl
;	spillPairReg hl
	inc	de
	ld	a, (de)
	ld	h, a
;	spillPairReg hl
;	spillPairReg hl
	bit	7, b
	jr	NZ, 00101$
	ld	e, h
	ld	d, #0x00
	ld	a, #0xaa
	cp	a, l
	ld	a, #0x00
	sbc	a, h
	bit	7, e
	jr	Z, 00147$
	bit	7, d
	jr	NZ, 00148$
	cp	a, a
	jr	00148$
00147$:
	bit	7, d
	jr	Z, 00148$
	scf
00148$:
	jr	C, 00101$
;main.c:659: projectiles[i].y -= yOverflow;
	ldhl	sp,#2
	ld	a, (hl+)
	ld	e, a
	ld	d, (hl)
	ld	a, (de)
	ld	c, a
	inc	de
	ld	a, (de)
;main.c:672: if (projectiles[i].x < 0 || projectiles[i].x > 170 || projectiles[i].y < 0 || projectiles[i].y > 154) {
	ld	b, a
	bit	7, b
	jr	NZ, 00101$
	ld	e, b
	ld	d, #0x00
	ld	a, #0x9a
	cp	a, c
	ld	a, #0x00
	sbc	a, b
	bit	7, e
	jr	Z, 00149$
	bit	7, d
	jr	NZ, 00150$
	cp	a, a
	jr	00150$
00149$:
	bit	7, d
	jr	Z, 00150$
	scf
00150$:
	jr	NC, 00113$
00101$:
;main.c:674: projectiles[i].active = 0;
	ldhl	sp,	#8
	ld	c, (hl)
	ld	b, #0x00
	ld	l, c
	ld	h, b
	add	hl, hl
	add	hl, hl
	add	hl, bc
	add	hl, hl
	add	hl, bc
	ld	de, #_projectiles
	add	hl, de
	ld	bc, #0x0008
	add	hl, bc
	ld	(hl), #0x00
;main.c:675: set_sprite_tile(20+i, 0x7f);
	ldhl	sp,	#7
;/home/milan/Documents/gameboy/gbdk/include/gb/gb.h:1447: shadow_OAM[nb].tile=tile;
	ld	l, (hl)
;	spillPairReg hl
;	spillPairReg hl
	ld	h, #0x00
;	spillPairReg hl
;	spillPairReg hl
	add	hl, hl
	add	hl, hl
	ld	de, #_shadow_OAM
	add	hl, de
	inc	hl
	inc	hl
	ld	(hl), #0x7f
;main.c:675: set_sprite_tile(20+i, 0x7f);
00113$:
;main.c:657: for (uint8_t i = 0; i < PROJECTILECOUNT; ++i) {
	ldhl	sp,	#8
	inc	(hl)
	jp	00112$
00114$:
;main.c:680: }
	add	sp, #9
	ret
;main.c:683: void initProjectiles() {
;	---------------------------------
; Function initProjectiles
; ---------------------------------
_initProjectiles::
;main.c:684: set_sprite_data(20, 6, ProjectileTiles);
	ld	de, #_ProjectileTiles
	push	de
	ld	hl, #0x614
	push	hl
	call	_set_sprite_data
	add	sp, #4
;main.c:686: for (uint8_t i = 0; i < PROJECTILECOUNT; ++i) {
	xor	a, a
00103$:
	ld	hl, #_PROJECTILECOUNT
	ld	c, (hl)
	cp	a, c
	ret	NC
	inc	a
;main.c:690: }
	jr	00103$
;main.c:692: void initGame() {
;	---------------------------------
; Function initGame
; ---------------------------------
_initGame::
;main.c:695: xDir = 0;
	ld	hl, #_xDir
	ld	(hl), #0x00
;main.c:696: yDir = 0;
	ld	hl, #_yDir
	ld	(hl), #0x00
;main.c:697: xSpeed = 0;
	ld	hl, #_xSpeed
	ld	(hl), #0x00
;main.c:698: ySpeed = 0;
	ld	hl, #_ySpeed
	ld	(hl), #0x00
;main.c:701: playerX = 80<<5;
	ld	hl, #_playerX
	ld	(hl), #0x00
	inc	hl
	ld	(hl), #0x0a
;main.c:702: playerY = 80<<5;
	ld	hl, #_playerY
	ld	(hl), #0x00
	inc	hl
	ld	(hl), #0x0a
;main.c:704: playerDrawX = 80;
	ld	hl, #_playerDrawX
	ld	(hl), #0x50
;main.c:705: playerDrawY = 80;
	ld	hl, #_playerDrawY
	ld	(hl), #0x50
;main.c:708: bgX = 0;
	xor	a, a
	ld	hl, #_bgX
	ld	(hl+), a
	ld	(hl), a
;main.c:709: bgY = 0;
	xor	a, a
	ld	hl, #_bgY
	ld	(hl+), a
	ld	(hl), a
;main.c:711: hull = maxHull;
	ld	a, (#_maxHull)
	ld	(#_hull),a
;main.c:712: shield = maxShield;
	ld	a, (#_maxShield)
	ld	(#_shield),a
;main.c:714: DISPLAY_ON;
	ldh	a, (_LCDC_REG + 0)
	or	a, #0x80
	ldh	(_LCDC_REG + 0), a
;main.c:715: SPRITES_8x8;
	ldh	a, (_LCDC_REG + 0)
	and	a, #0xfb
	ldh	(_LCDC_REG + 0), a
;main.c:716: set_sprite_data(0, 8, cross);
	ld	de, #_cross
	push	de
	ld	hl, #0x800
	push	hl
	call	_set_sprite_data
	add	sp, #4
;/home/milan/Documents/gameboy/gbdk/include/gb/gb.h:1447: shadow_OAM[nb].tile=tile;
	ld	hl, #(_shadow_OAM + 2)
	ld	(hl), #0x00
;main.c:719: SHOW_SPRITES;
	ldh	a, (_LCDC_REG + 0)
	or	a, #0x02
	ldh	(_LCDC_REG + 0), a
;main.c:723: font_init();
	call	_font_init
;main.c:724: min_font = font_load(font_min); // 36 tiles of characters
	ld	de, #_font_min
	push	de
	call	_font_load
	pop	hl
	ld	hl, #_min_font
	ld	a, e
	ld	(hl+), a
;main.c:725: font_set(min_font);
	ld	a, d
	ld	(hl-), a
	ld	a, (hl+)
	ld	e, a
	ld	d, (hl)
	push	de
	call	_font_set
	pop	hl
;main.c:726: set_win_tiles(1,0,4,1,hullabel);
	ld	de, #_hullabel
	push	de
	ld	hl, #0x104
	push	hl
	ld	hl, #0x01
	push	hl
	call	_set_win_tiles
	add	sp, #6
;main.c:727: set_win_tiles(1,1,5,1,shieldlabel);
	ld	de, #_shieldlabel
	push	de
	ld	hl, #0x105
	push	hl
	ld	hl, #0x101
	push	hl
	call	_set_win_tiles
	add	sp, #6
;main.c:732: set_bkg_data(0x50,1,healthblock);
	ld	de, #_healthblock
	push	de
	ld	hl, #0x150
	push	hl
	call	_set_bkg_data
	add	sp, #4
;main.c:734: setHealthBar(0, hull);
	ld	a, (#_hull)
	ld	h, a
	ld	l, #0x00
	push	hl
	call	_setHealthBar
	pop	hl
;main.c:735: setHealthBar(1, shield);
	ld	a, (#_shield)
	ld	h, a
	ld	l, #0x01
	push	hl
	call	_setHealthBar
	pop	hl
;/home/milan/Documents/gameboy/gbdk/include/gb/gb.h:1316: WX_REG=x, WY_REG=y;
	ld	a, #0x07
	ldh	(_WX_REG + 0), a
	ld	a, #0x7e
	ldh	(_WY_REG + 0), a
;main.c:738: SHOW_WIN;;
	ldh	a, (_LCDC_REG + 0)
	or	a, #0x20
	ldh	(_LCDC_REG + 0), a
;main.c:743: set_bkg_data(0x25, 6, backgroundtiles);		// load background tileset (start in vram, count, tilestruct)
	ld	de, #_backgroundtiles
	push	de
	ld	hl, #0x625
	push	hl
	call	_set_bkg_data
	add	sp, #4
;main.c:744: set_bkg_tiles(0,0,background1Width, background1Height ,background1); //set tilemap to be a background
	ld	de, #_background1
	push	de
	ld	hl, #0x2020
	push	hl
	xor	a, a
	rrca
	push	af
	call	_set_bkg_tiles
	add	sp, #6
;/home/milan/Documents/gameboy/gbdk/include/gb/gb.h:1080: SCX_REG=x, SCY_REG=y;
	xor	a, a
	ldh	(_SCX_REG + 0), a
	xor	a, a
	ldh	(_SCY_REG + 0), a
;main.c:746: SHOW_BKG;
	ldh	a, (_LCDC_REG + 0)
	or	a, #0x01
	ldh	(_LCDC_REG + 0), a
;main.c:752: }
	ret
;main.c:754: void main(){
;	---------------------------------
; Function main
; ---------------------------------
_main::
;main.c:766: waitpad(J_A);
	ld	a, #0x10
	push	af
	inc	sp
	call	_waitpad
	inc	sp
;main.c:767: uint16_t seed = LY_REG;
	ldh	a, (_LY_REG + 0)
	ld	c, a
	ld	b, #0x00
;main.c:768: seed |= (uint16_t)DIV_REG << 8;
	ldh	a, (_DIV_REG + 0)
	ld	e, a
	xor	a, a
	or	a, c
	ld	c, a
	ld	a, e
	or	a, b
	ld	b, a
;main.c:769: initrand(seed);
	push	bc
	call	_initrand
	pop	hl
;main.c:774: initGame();
	call	_initGame
;main.c:775: initEnemies(1);
	ld	a, #0x01
	push	af
	inc	sp
	call	_initEnemies
	inc	sp
;main.c:776: initProjectiles();
	call	_initProjectiles
;main.c:778: while(1) {
00107$:
;main.c:781: joydata = joypad(); // query for button states
	call	_joypad
	ld	hl, #_joydata
	ld	(hl), e
;main.c:783: updateDirection(); // set player direction
	call	_updateDirection
;main.c:786: move(); 
	call	_move
;main.c:788: updateEnemyPositions();
	call	_updateEnemyPositions
;main.c:791: checkCollision(); 
	call	_checkCollision
;main.c:585: if (shield < maxShield) {
	ld	hl, #_maxShield
	ld	c, (hl)
	ld	e, c
	ld	hl, #_shield
	ld	d, (hl)
	ld	a, (hl)
	sub	a, c
	bit	7, e
	jr	Z, 00142$
	bit	7, d
	jr	NZ, 00143$
	cp	a, a
	jr	00143$
00142$:
	bit	7, d
	jr	Z, 00143$
	scf
00143$:
	jr	NC, 00113$
;main.c:586: shield += 1;
	ld	hl, #_shield
	inc	(hl)
00113$:
;main.c:588: setHealthBar(0, hull);
	ld	a, (#_hull)
	ld	h, a
	ld	l, #0x00
	push	hl
	call	_setHealthBar
	pop	hl
;main.c:589: setHealthBar(1, shield);
	ld	a, (#_shield)
	ld	h, a
	ld	l, #0x01
	push	hl
	call	_setHealthBar
	pop	hl
;main.c:796: if (joydata & J_B && fireCooldown == 0) {
	ld	a, (#_joydata)
	bit	5, a
	jr	Z, 00102$
	ld	a, (#_fireCooldown)
	or	a, a
	jr	NZ, 00102$
;main.c:797: fire();
	call	_fire
00102$:
;main.c:799: if (fireCooldown > 0) {
	ld	hl, #_fireCooldown
	ld	a, (hl)
	or	a, a
	jr	Z, 00105$
;main.c:800: --fireCooldown;
	dec	(hl)
00105$:
;main.c:803: moveProjectiles();
	call	_moveProjectiles
;main.c:815: SHOW_WIN;	
	ldh	a, (_LCDC_REG + 0)
	or	a, #0x20
	ldh	(_LCDC_REG + 0), a
;main.c:816: wait_vbl_done(); // Idle until next frame
	call	_wait_vbl_done
;main.c:821: }
	jr	00107$
	.area _CODE
	.area _INITIALIZER
__xinit__hullabel:
	.db #0x12	; 18
	.db #0x1f	; 31
	.db #0x16	; 22
	.db #0x16	; 22
__xinit__shieldlabel:
	.db #0x1d	; 29
	.db #0x12	; 18
	.db #0x16	; 22
	.db #0x0e	; 14
__xinit__blob:
	.dw #0x0000
	.dw #0x0000
	.db #0x00	;  0
	.db #0x00	;  0
	.db #0x09	; 9
	.db #0x00	; 0
	.db #0x01	; 1
	.db #0x01	; 1
	.db #0x01	; 1
	.db #0x32	; 50	'2'
	.db #0x03	;  3
	.db #0x01	; 1
	.db #0x00	;  0
	.db #0x00	;  0
__xinit__singleGun:
	.dw #0x0000
	.dw #0x0000
	.db #0x00	;  0
	.db #0xff	; -1
	.db #0x02	; 2
	.db #0x00	; 0
	.db #0x01	; 1
	.db #0x0f	; 15
	.db #0x14	; 20
__xinit__doubleGun:
	.dw #0x0000
	.dw #0x0000
	.db #0x00	;  0
	.db #0xff	; -1
	.db #0x02	; 2
	.db #0x00	; 0
	.db #0x01	; 1
	.db #0x0f	; 15
	.db #0x17	; 23
__xinit__oldestProjectile:
	.db #0x00	; 0
__xinit__fireCooldown:
	.db #0x00	; 0
__xinit__xDir:
	.db #0x00	;  0
__xinit__yDir:
	.db #0x00	;  0
__xinit__xSpeed:
	.db #0x00	;  0
__xinit__ySpeed:
	.db #0x00	;  0
__xinit__playerX:
	.dw #0x0a00
__xinit__playerY:
	.dw #0x0a00
__xinit__playerDrawX:
	.db #0x50	; 80	'P'
__xinit__playerDrawY:
	.db #0x50	; 80	'P'
__xinit__bgX:
	.dw #0x0000
__xinit__bgY:
	.dw #0x0000
__xinit__xOverflow:
	.dw #0x0000
__xinit__yOverflow:
	.dw #0x0000
__xinit__enemyCollisionCount:
	.db #0x00	; 0
	.area _CABS (ABS)
